   1               		.file	"atmega_slave.c"
   2               	__SREG__ = 0x3f
   3               	__SP_H__ = 0x3e
   4               	__SP_L__ = 0x3d
   5               	__CCP__ = 0x34
   6               	__tmp_reg__ = 0
   7               	__zero_reg__ = 1
  15               	.Ltext0:
  16               	.global	motor_ports_init
  18               	motor_ports_init:
  19               	.LFB0:
  20               	.LM1:
  21               	/* prologue: function */
  22               	/* frame size = 0 */
  23               	/* stack size = 0 */
  24               	.L__stack_usage = 0
  25               	.LM2:
  26 0000 81B3      		in r24,49-32
  27 0002 806F      		ori r24,lo8(-16)
  28 0004 81BB      		out 49-32,r24
  29               	.LM3:
  30 0006 82B3      		in r24,50-32
  31 0008 8F70      		andi r24,lo8(15)
  32 000a 82BB      		out 50-32,r24
  33               	.LM4:
  34 000c 84B3      		in r24,52-32
  35 000e 8C63      		ori r24,lo8(60)
  36 0010 84BB      		out 52-32,r24
  37               	.LM5:
  38 0012 82B3      		in r24,50-32
  39 0014 837C      		andi r24,lo8(-61)
  40 0016 82BB      		out 50-32,r24
  41               	.LM6:
  42 0018 82B3      		in r24,50-32
  43 001a 8063      		ori r24,lo8(48)
  44 001c 82BB      		out 50-32,r24
  45 001e 82B3      		in r24,50-32
  46 0020 8F73      		andi r24,lo8(63)
  47 0022 82BB      		out 50-32,r24
  48               	.LM7:
  49 0024 85B3      		in r24,53-32
  50 0026 8861      		ori r24,lo8(24)
  51 0028 85BB      		out 53-32,r24
  52 002a 85B3      		in r24,53-32
  53 002c 8B7D      		andi r24,lo8(-37)
  54 002e 85BB      		out 53-32,r24
  55               	/* epilogue start */
  56               	.LM8:
  57 0030 0895      		ret
  58               	.LFE0:
  60               	.global	ADC_init
  62               	ADC_init:
  63               	.LFB1:
  64               	.LM9:
  65               	/* prologue: function */
  66               	/* frame size = 0 */
  67               	/* stack size = 0 */
  68               	.L__stack_usage = 0
  69               	.LM10:
  70 0032 87B1      		in r24,39-32
  71 0034 806C      		ori r24,lo8(-64)
  72 0036 87B9      		out 39-32,r24
  73               	.LM11:
  74 0038 3D9A      		sbi 39-32,5
  75               	.LM12:
  76 003a 339A      		sbi 38-32,3
  77               	.LM13:
  78 003c 86B1      		in r24,38-32
  79 003e 8768      		ori r24,lo8(-121)
  80 0040 86B9      		out 38-32,r24
  81               	.LM14:
  82 0042 369A      		sbi 38-32,6
  83               	/* epilogue start */
  84               	.LM15:
  85 0044 0895      		ret
  86               	.LFE1:
  88               	.global	SPI_init
  90               	SPI_init:
  91               	.LFB2:
  92               	.LM16:
  93               	/* prologue: function */
  94               	/* frame size = 0 */
  95               	/* stack size = 0 */
  96               	.L__stack_usage = 0
  97               	.LM17:
  98 0046 BC9A      		sbi 55-32,4
  99               	.LM18:
 100 0048 8DB1      		in r24,45-32
 101 004a 806C      		ori r24,lo8(-64)
 102 004c 8DB9      		out 45-32,r24
 103               	/* epilogue start */
 104               	.LM19:
 105 004e 0895      		ret
 106               	.LFE2:
 108               	.global	Timer0_init
 110               	Timer0_init:
 111               	.LFB3:
 112               	.LM20:
 113               	/* prologue: function */
 114               	/* frame size = 0 */
 115               	/* stack size = 0 */
 116               	.L__stack_usage = 0
 117               	.LM21:
 118 0050 83B7      		in r24,83-32
 119 0052 8260      		ori r24,lo8(2)
 120 0054 83BF      		out 83-32,r24
 121               	.LM22:
 122 0056 89B7      		in r24,89-32
 123 0058 8160      		ori r24,lo8(1)
 124 005a 89BF      		out 89-32,r24
 125               	/* epilogue start */
 126               	.LM23:
 127 005c 0895      		ret
 128               	.LFE3:
 130               	.global	__vector_10
 132               	__vector_10:
 133               	.LFB4:
 134               	.LM24:
 135 005e 1F92      		push __zero_reg__
 136 0060 0F92      		push r0
 137 0062 0FB6      		in r0,__SREG__
 138 0064 0F92      		push r0
 139 0066 1124      		clr __zero_reg__
 140 0068 8F93      		push r24
 141 006a EF93      		push r30
 142 006c FF93      		push r31
 143               	/* prologue: Signal */
 144               	/* frame size = 0 */
 145               	/* stack size = 6 */
 146               	.L__stack_usage = 6
 147               	.LM25:
 148 006e E091 0000 		lds r30,j
 149 0072 F0E0      		ldi r31,lo8(0)
 150 0074 8FB1      		in r24,47-32
 151 0076 E050      		subi r30,lo8(-(btn_state))
 152 0078 F040      		sbci r31,hi8(-(btn_state))
 153 007a 8083      		st Z,r24
 154               	.LM26:
 155 007c 8091 0000 		lds r24,j
 156 0080 8530      		cpi r24,lo8(5)
 157 0082 00F4      		brsh .L6
 158               	.LM27:
 159 0084 8091 0000 		lds r24,j
 160 0088 8F5F      		subi r24,lo8(-(1))
 161 008a 8093 0000 		sts j,r24
 162 008e 00C0      		rjmp .L7
 163               	.L6:
 164               	.LM28:
 165 0090 1092 0000 		sts j,__zero_reg__
 166               	.L7:
 167               	.LM29:
 168 0094 E091 0000 		lds r30,j
 169 0098 F0E0      		ldi r31,lo8(0)
 170 009a E050      		subi r30,lo8(-(memory_state))
 171 009c F040      		sbci r31,hi8(-(memory_state))
 172 009e 8081      		ld r24,Z
 173 00a0 8FB9      		out 47-32,r24
 174               	/* epilogue start */
 175               	.LM30:
 176 00a2 FF91      		pop r31
 177 00a4 EF91      		pop r30
 178 00a6 8F91      		pop r24
 179 00a8 0F90      		pop r0
 180 00aa 0FBE      		out __SREG__,r0
 181 00ac 0F90      		pop r0
 182 00ae 1F90      		pop __zero_reg__
 183 00b0 1895      		reti
 184               	.LFE4:
 186               	.global	__vector_14
 188               	__vector_14:
 189               	.LFB6:
 190               	.LM31:
 191 00b2 1F92      		push __zero_reg__
 192 00b4 0F92      		push r0
 193 00b6 0FB6      		in r0,__SREG__
 194 00b8 0F92      		push r0
 195 00ba 1124      		clr __zero_reg__
 196 00bc 8F93      		push r24
 197               	/* prologue: Signal */
 198               	/* frame size = 0 */
 199               	/* stack size = 4 */
 200               	.L__stack_usage = 4
 201               	.LM32:
 202 00be 85B1      		in r24,37-32
 203 00c0 8093 0000 		sts memory_state+5,r24
 204 00c4 8091 0000 		lds r24,memory_state+5
 205 00c8 8093 0000 		sts set_speed,r24
 206               	/* epilogue start */
 207               	.LM33:
 208 00cc 8F91      		pop r24
 209 00ce 0F90      		pop r0
 210 00d0 0FBE      		out __SREG__,r0
 211 00d2 0F90      		pop r0
 212 00d4 1F90      		pop __zero_reg__
 213 00d6 1895      		reti
 214               	.LFE6:
 216               	.global	main
 218               	main:
 219               	.LFB7:
 220               	.LM34:
 221               	/* prologue: function */
 222               	/* frame size = 0 */
 223               	/* stack size = 0 */
 224               	.L__stack_usage = 0
 225               	.LM35:
 226 00d8 00D0      		rcall motor_ports_init
 227               	.LM36:
 228 00da 00D0      		rcall Timer0_init
 229               	.LM37:
 230 00dc 00D0      		rcall SPI_init
 231               	.LM38:
 232 00de 00D0      		rcall ADC_init
 233               	.LM39:
 234               	/* #APP */
 235               	 ;  148 "atmega_slave.c" 1
 236 00e0 7894      		sei
 237               	 ;  0 "" 2
 238               	.LM40:
 239               	/* #NOAPP */
 240 00e2 5CED      		ldi r21,lo8(-36)
 241               	.L21:
 242               	.LM41:
 243 00e4 6091 0000 		lds r22,current_state
 244 00e8 8091 0000 		lds r24,i
 245 00ec 9091 0000 		lds r25,i+1
 246 00f0 4091 0000 		lds r20,current_mode
 247 00f4 3091 0000 		lds r19,course
 248               	.LM42:
 249 00f8 2091 0000 		lds r18,iteration
 250 00fc 2695      		lsr r18
 251 00fe 2695      		lsr r18
 252 0100 2695      		lsr r18
 253               	.L14:
 254               	.LM43:
 255 0102 6130      		cpi r22,lo8(1)
 256 0104 01F4      		brne .L10
 257               	.LM44:
 258 0106 7091 0000 		lds r23,btn_state
 259 010a 7130      		cpi r23,lo8(1)
 260 010c 01F0      		breq .L11
 261               	.LM45:
 262 010e 7091 0000 		lds r23,btn_state+1
 263 0112 7130      		cpi r23,lo8(1)
 264 0114 01F4      		brne .L10
 265               	.L11:
 266               	.LM46:
 267 0116 0097      		sbiw r24,0
 268 0118 01F4      		brne .L12
 269               	.LM47:
 270 011a 3091 0000 		lds r19,btn_state
 271 011e 3130      		cpi r19,lo8(1)
 272 0120 01F0      		breq .L22
 273               	.LM48:
 274 0122 3091 0000 		lds r19,btn_state+1
 275 0126 00C0      		rjmp .L22
 276               	.L12:
 277               	.LM49:
 278 0128 7BE0      		ldi r23,hi8(3000)
 279 012a 883B      		cpi r24,lo8(3000)
 280 012c 9707      		cpc r25,r23
 281 012e 01F0      		breq .L23
 282               	.LM50:
 283 0130 0196      		adiw r24,1
 284 0132 00C0      		rjmp .L13
 285               	.L22:
 286               	.LM51:
 287 0134 322F      		mov r19,r18
 288               	.LM52:
 289 0136 42E0      		ldi r20,lo8(2)
 290 0138 00C0      		rjmp .L13
 291               	.L23:
 292               	.LM53:
 293 013a 80E0      		ldi r24,lo8(0)
 294 013c 90E0      		ldi r25,hi8(0)
 295               	.L13:
 296               	.LM54:
 297 013e 1092 0000 		sts btn_state,__zero_reg__
 298               	.LM55:
 299 0142 1092 0000 		sts btn_state+1,__zero_reg__
 300               	.L10:
 301               	.LM56:
 302 0146 7091 0000 		lds r23,btn_get_flag
 303 014a 7430      		cpi r23,lo8(4)
 304 014c 01F4      		brne .L14
 305 014e 9093 0000 		sts i+1,r25
 306 0152 8093 0000 		sts i,r24
 307 0156 4093 0000 		sts current_mode,r20
 308 015a 3093 0000 		sts course,r19
 309               	.LM57:
 310 015e 8091 0000 		lds r24,btn_state+5
 311 0162 8130      		cpi r24,lo8(1)
 312 0164 01F4      		brne .L15
 313               	.LM58:
 314 0166 9091 0000 		lds r25,current_state
 315 016a 9923      		tst r25
 316 016c 01F4      		brne .L15
 317               	.LM59:
 318 016e 8093 0000 		sts current_state,r24
 319               	.LM60:
 320 0172 8093 0000 		sts current_mode,r24
 321 0176 00C0      		rjmp .L25
 322               	.L15:
 323               	.LM61:
 324 0178 8091 0000 		lds r24,btn_state+5
 325 017c 8230      		cpi r24,lo8(2)
 326 017e 01F4      		brne .L16
 327               	.LM62:
 328 0180 8091 0000 		lds r24,current_state
 329 0184 8130      		cpi r24,lo8(1)
 330 0186 01F4      		brne .L16
 331               	.LM63:
 332 0188 1092 0000 		sts current_state,__zero_reg__
 333               	.LM64:
 334 018c 1092 0000 		sts current_mode,__zero_reg__
 335               	.L25:
 336               	.LM65:
 337 0190 1092 0000 		sts btn_state+5,__zero_reg__
 338               	.L16:
 339               	.LM66:
 340 0194 8091 0000 		lds r24,current_state
 341 0198 8093 0000 		sts memory_state,r24
 342               	.LM67:
 343 019c 8091 0000 		lds r24,current_mode
 344 01a0 8093 0000 		sts memory_state+1,r24
 345               	.LM68:
 346 01a4 8091 0000 		lds r24,course
 347 01a8 8093 0000 		sts memory_state+3,r24
 348               	.LM69:
 349 01ac 8091 0000 		lds r24,total_dist
 350 01b0 8093 0000 		sts memory_state+4,r24
 351               	.LM70:
 352 01b4 369A      		sbi 38-32,6
 353               	.LM71:
 354 01b6 8091 0000 		lds r24,set_speed
 355 01ba 8D3D      		cpi r24,lo8(-35)
 356 01bc 00F0      		brlo .L17
 357               	.LM72:
 358 01be 5093 0000 		sts motor_speed,r21
 359 01c2 00C0      		rjmp .L18
 360               	.L17:
 361               	.LM73:
 362 01c4 8091 0000 		lds r24,set_speed
 363               	.LM74:
 364 01c8 8091 0000 		lds r24,set_speed
 365 01cc 8093 0000 		sts motor_speed,r24
 366               	.L18:
 367               	.LM75:
 368 01d0 8091 0000 		lds r24,set_speed
 369 01d4 8D3D      		cpi r24,lo8(-35)
 370 01d6 00F0      		brlo .L19
 371               	.LM76:
 372 01d8 5093 0000 		sts motor_speed+1,r21
 373 01dc 00C0      		rjmp .L20
 374               	.L19:
 375               	.LM77:
 376 01de 8091 0000 		lds r24,set_speed
 377               	.LM78:
 378 01e2 8091 0000 		lds r24,set_speed
 379 01e6 8093 0000 		sts motor_speed+1,r24
 380               	.L20:
 381               	.LM79:
 382 01ea 1092 0000 		sts btn_get_flag,__zero_reg__
 383 01ee 00C0      		rjmp .L21
 384               	.LFE7:
 386               	.global	motor_make_step
 388               	motor_make_step:
 389               	.LFB8:
 390               	.LM80:
 391               	.LVL0:
 392               	/* prologue: function */
 393               	/* frame size = 0 */
 394               	/* stack size = 0 */
 395               	.L__stack_usage = 0
 396               	.LM81:
 397 01f0 6530      		cpi r22,lo8(5)
 398 01f2 00F4      		brsh .L38
 399               	.LM82:
 400 01f4 6623      		tst r22
 401 01f6 01F0      		breq .L39
 402 01f8 00C0      		rjmp .L27
 403               	.L38:
 404               	.LM83:
 405 01fa 61E0      		ldi r22,lo8(1)
 406               	.LVL1:
 407 01fc 00C0      		rjmp .L27
 408               	.LVL2:
 409               	.L39:
 410               	.LM84:
 411 01fe 64E0      		ldi r22,lo8(4)
 412               	.LVL3:
 413               	.L27:
 414               	.LM85:
 415 0200 8823      		tst r24
 416 0202 01F4      		brne .L28
 417               	.LM86:
 418 0204 6330      		cpi r22,lo8(3)
 419 0206 01F0      		breq .L31
 420 0208 6430      		cpi r22,lo8(4)
 421 020a 01F0      		breq .L32
 422 020c 6230      		cpi r22,lo8(2)
 423 020e 01F0      		breq .L30
 424               	.LM87:
 425 0210 92B3      		in r25,50-32
 426 0212 9063      		ori r25,lo8(48)
 427 0214 92BB      		out 50-32,r25
 428 0216 92B3      		in r25,50-32
 429 0218 9F73      		andi r25,lo8(63)
 430 021a 00C0      		rjmp .L40
 431               	.L30:
 432               	.LM88:
 433 021c 959A      		sbi 50-32,5
 434 021e 92B3      		in r25,50-32
 435 0220 9F72      		andi r25,lo8(47)
 436 0222 00C0      		rjmp .L40
 437               	.L31:
 438               	.LM89:
 439 0224 92B3      		in r25,50-32
 440 0226 9066      		ori r25,lo8(96)
 441 0228 92BB      		out 50-32,r25
 442 022a 92B3      		in r25,50-32
 443 022c 9F76      		andi r25,lo8(111)
 444               	.L40:
 445 022e 92BB      		out 50-32,r25
 446               	.LM90:
 447 0230 00C0      		rjmp .L33
 448               	.L32:
 449               	.LM91:
 450 0232 969A      		sbi 50-32,6
 451 0234 92B3      		in r25,50-32
 452 0236 9F74      		andi r25,lo8(79)
 453 0238 00C0      		rjmp .L40
 454               	.L28:
 455               	.LM92:
 456 023a 8130      		cpi r24,lo8(1)
 457 023c 01F4      		brne .L33
 458               	.LM93:
 459 023e 6330      		cpi r22,lo8(3)
 460 0240 01F0      		breq .L36
 461 0242 6430      		cpi r22,lo8(4)
 462 0244 01F0      		breq .L37
 463 0246 6230      		cpi r22,lo8(2)
 464 0248 01F0      		breq .L35
 465               	.LM94:
 466 024a 95B3      		in r25,53-32
 467 024c 9861      		ori r25,lo8(24)
 468 024e 95BB      		out 53-32,r25
 469 0250 95B3      		in r25,53-32
 470 0252 9B7D      		andi r25,lo8(-37)
 471 0254 00C0      		rjmp .L41
 472               	.L35:
 473               	.LM95:
 474 0256 95B3      		in r25,53-32
 475 0258 9C60      		ori r25,lo8(12)
 476 025a 95BB      		out 53-32,r25
 477 025c 95B3      		in r25,53-32
 478 025e 9F7C      		andi r25,lo8(-49)
 479 0260 00C0      		rjmp .L41
 480               	.L36:
 481               	.LM96:
 482 0262 95B3      		in r25,53-32
 483 0264 9462      		ori r25,lo8(36)
 484 0266 95BB      		out 53-32,r25
 485 0268 95B3      		in r25,53-32
 486 026a 977E      		andi r25,lo8(-25)
 487 026c 00C0      		rjmp .L41
 488               	.L37:
 489               	.LM97:
 490 026e 95B3      		in r25,53-32
 491 0270 9063      		ori r25,lo8(48)
 492 0272 95BB      		out 53-32,r25
 493 0274 95B3      		in r25,53-32
 494 0276 937F      		andi r25,lo8(-13)
 495               	.L41:
 496 0278 95BB      		out 53-32,r25
 497               	.L33:
 498               	.LM98:
 499 027a E82F      		mov r30,r24
 500 027c F0E0      		ldi r31,lo8(0)
 501 027e E050      		subi r30,lo8(-(motor_current_step))
 502 0280 F040      		sbci r31,hi8(-(motor_current_step))
 503 0282 6083      		st Z,r22
 504               	/* epilogue start */
 505               	.LM99:
 506 0284 0895      		ret
 507               	.LFE8:
 509               	.global	motor_move
 511               	motor_move:
 512               	.LFB9:
 513               	.LM100:
 514               	.LVL4:
 515 0286 0F93      		push r16
 516 0288 1F93      		push r17
 517               	/* prologue: function */
 518               	/* frame size = 0 */
 519               	/* stack size = 2 */
 520               	.L__stack_usage = 2
 521 028a 082F      		mov r16,r24
 522 028c 162F      		mov r17,r22
 523 028e 282F      		mov r18,r24
 524 0290 30E0      		ldi r19,lo8(0)
 525               	.LM101:
 526 0292 6130      		cpi r22,lo8(1)
 527 0294 01F4      		brne .L43
 528               	.LVL5:
 529               	.LM102:
 530 0296 2050      		subi r18,lo8(-(motor_current_step))
 531 0298 3040      		sbci r19,hi8(-(motor_current_step))
 532 029a F901      		movw r30,r18
 533 029c 6081      		ld r22,Z
 534 029e 6F5F      		subi r22,lo8(-(1))
 535 02a0 00C0      		rjmp .L44
 536               	.L43:
 537               	.LM103:
 538 02a2 2050      		subi r18,lo8(-(motor_current_step))
 539 02a4 3040      		sbci r19,hi8(-(motor_current_step))
 540 02a6 F901      		movw r30,r18
 541 02a8 6081      		ld r22,Z
 542 02aa 6150      		subi r22,lo8(-(-1))
 543               	.L44:
 544               	.LVL6:
 545               	.LM104:
 546 02ac 802F      		mov r24,r16
 547 02ae 00D0      		rcall motor_make_step
 548               	.LVL7:
 549               	.LM105:
 550 02b0 0023      		tst r16
 551 02b2 01F4      		brne .L45
 552               	.LM106:
 553 02b4 1123      		tst r17
 554 02b6 01F4      		brne .L46
 555               	.LM107:
 556 02b8 8091 0000 		lds r24,motor_pos
 557 02bc 9091 0000 		lds r25,motor_pos+1
 558 02c0 0097      		sbiw r24,0
 559 02c2 01F4      		brne .L47
 560               	.LM108:
 561 02c4 80E9      		ldi r24,lo8(400)
 562 02c6 91E0      		ldi r25,hi8(400)
 563 02c8 00C0      		rjmp .L50
 564               	.L46:
 565               	.LM109:
 566 02ca 1130      		cpi r17,lo8(1)
 567 02cc 01F4      		brne .L47
 568               	.LM110:
 569 02ce 8091 0000 		lds r24,motor_pos
 570 02d2 9091 0000 		lds r25,motor_pos+1
 571 02d6 F1E0      		ldi r31,hi8(400)
 572 02d8 8039      		cpi r24,lo8(400)
 573 02da 9F07      		cpc r25,r31
 574 02dc 01F4      		brne .L49
 575               	.LM111:
 576 02de 1092 0000 		sts motor_pos+1,__zero_reg__
 577 02e2 1092 0000 		sts motor_pos,__zero_reg__
 578 02e6 00C0      		rjmp .L42
 579               	.L49:
 580               	.LM112:
 581 02e8 8091 0000 		lds r24,motor_pos
 582 02ec 9091 0000 		lds r25,motor_pos+1
 583 02f0 0196      		adiw r24,1
 584 02f2 00C0      		rjmp .L50
 585               	.L47:
 586               	.LM113:
 587 02f4 8091 0000 		lds r24,motor_pos
 588 02f8 9091 0000 		lds r25,motor_pos+1
 589 02fc 0197      		sbiw r24,1
 590               	.L50:
 591               	.LM114:
 592 02fe 9093 0000 		sts motor_pos+1,r25
 593 0302 8093 0000 		sts motor_pos,r24
 594 0306 00C0      		rjmp .L42
 595               	.L45:
 596               	.LM115:
 597 0308 0130      		cpi r16,lo8(1)
 598 030a 01F4      		brne .L42
 599               	.LM116:
 600 030c 1123      		tst r17
 601 030e 01F4      		brne .L51
 602               	.LM117:
 603 0310 8091 0000 		lds r24,motor_pos+2
 604 0314 9091 0000 		lds r25,motor_pos+2+1
 605 0318 0197      		sbiw r24,1
 606 031a 00C0      		rjmp .L52
 607               	.L51:
 608               	.LM118:
 609 031c 1130      		cpi r17,lo8(1)
 610 031e 01F4      		brne .L42
 611               	.LM119:
 612 0320 8091 0000 		lds r24,motor_pos+2
 613 0324 9091 0000 		lds r25,motor_pos+2+1
 614 0328 0196      		adiw r24,1
 615               	.L52:
 616 032a 9093 0000 		sts motor_pos+2+1,r25
 617 032e 8093 0000 		sts motor_pos+2,r24
 618               	.L42:
 619               	/* epilogue start */
 620               	.LM120:
 621 0332 1F91      		pop r17
 622               	.LVL8:
 623 0334 0F91      		pop r16
 624               	.LVL9:
 625 0336 0895      		ret
 626               	.LFE9:
 628               	.global	__vector_9
 630               	__vector_9:
 631               	.LFB5:
 632               	.LM121:
 633 0338 1F92      		push __zero_reg__
 634 033a 0F92      		push r0
 635 033c 0FB6      		in r0,__SREG__
 636 033e 0F92      		push r0
 637 0340 1124      		clr __zero_reg__
 638 0342 2F93      		push r18
 639 0344 3F93      		push r19
 640 0346 4F93      		push r20
 641 0348 5F93      		push r21
 642 034a 6F93      		push r22
 643 034c 7F93      		push r23
 644 034e 8F93      		push r24
 645 0350 9F93      		push r25
 646 0352 AF93      		push r26
 647 0354 BF93      		push r27
 648 0356 EF93      		push r30
 649 0358 FF93      		push r31
 650               	/* prologue: Signal */
 651               	/* frame size = 0 */
 652               	/* stack size = 15 */
 653               	.L__stack_usage = 15
 654               	.LM122:
 655 035a 2091 0000 		lds r18,stepper_flag
 656 035e 4091 0000 		lds r20,motor_speed
 657 0362 30E0      		ldi r19,lo8(0)
 658 0364 8FEF      		ldi r24,lo8(255)
 659 0366 90E0      		ldi r25,hi8(255)
 660 0368 841B      		sub r24,r20
 661 036a 9109      		sbc r25,__zero_reg__
 662 036c 8217      		cp r24,r18
 663 036e 9307      		cpc r25,r19
 664 0370 04F4      		brge .L54
 665               	.LM123:
 666 0372 1092 0000 		sts stepper_flag,__zero_reg__
 667 0376 00C0      		rjmp .L55
 668               	.L54:
 669               	.LM124:
 670 0378 8091 0000 		lds r24,stepper_flag
 671 037c 8F5F      		subi r24,lo8(-(1))
 672 037e 8093 0000 		sts stepper_flag,r24
 673               	.L55:
 674               	.LM125:
 675 0382 8091 0000 		lds r24,stepper_flag
 676 0386 8823      		tst r24
 677 0388 01F4      		brne .L56
 678               	.LM126:
 679 038a 8091 0000 		lds r24,current_mode
 680 038e 8130      		cpi r24,lo8(1)
 681 0390 01F4      		brne .L57
 682               	.LM127:
 683 0392 80E0      		ldi r24,lo8(0)
 684 0394 60E0      		ldi r22,lo8(0)
 685 0396 00D0      		rcall motor_move
 686               	.LM128:
 687 0398 81E0      		ldi r24,lo8(1)
 688 039a 60E0      		ldi r22,lo8(0)
 689 039c 00C0      		rjmp .L58
 690               	.L57:
 691               	.LM129:
 692 039e 8230      		cpi r24,lo8(2)
 693 03a0 01F4      		brne .L56
 694               	.LM130:
 695 03a2 80E0      		ldi r24,lo8(0)
 696 03a4 61E0      		ldi r22,lo8(1)
 697 03a6 00D0      		rcall motor_move
 698               	.LM131:
 699 03a8 81E0      		ldi r24,lo8(1)
 700 03aa 61E0      		ldi r22,lo8(1)
 701               	.L58:
 702 03ac 00D0      		rcall motor_move
 703               	.L56:
 704               	.LM132:
 705 03ae 8091 0000 		lds r24,btn_get_flag
 706 03b2 8F5F      		subi r24,lo8(-(1))
 707 03b4 8093 0000 		sts btn_get_flag,r24
 708               	/* epilogue start */
 709               	.LM133:
 710 03b8 FF91      		pop r31
 711 03ba EF91      		pop r30
 712 03bc BF91      		pop r27
 713 03be AF91      		pop r26
 714 03c0 9F91      		pop r25
 715 03c2 8F91      		pop r24
 716 03c4 7F91      		pop r23
 717 03c6 6F91      		pop r22
 718 03c8 5F91      		pop r21
 719 03ca 4F91      		pop r20
 720 03cc 3F91      		pop r19
 721 03ce 2F91      		pop r18
 722 03d0 0F90      		pop r0
 723 03d2 0FBE      		out __SREG__,r0
 724 03d4 0F90      		pop r0
 725 03d6 1F90      		pop __zero_reg__
 726 03d8 1895      		reti
 727               	.LFE5:
 729               	.global	motor_current_step
 730               		.data
 733               	motor_current_step:
 734 0000 01        		.byte	1
 735 0001 01        		.byte	1
 736               	.global	motor_pos
 739               	motor_pos:
 740 0002 0000      		.word	0
 741 0004 0500      		.word	5
 742               	.global	set_speed
 743               	.global	set_speed
 744               		.section .bss
 747               	set_speed:
 748 0000 00        		.skip 1,0
 749               	.global	motor_speed
 750               	.global	motor_speed
 753               	motor_speed:
 754 0001 0000      		.skip 2,0
 755               	.global	memory_state
 756               	.global	memory_state
 759               	memory_state:
 760 0003 0000 0000 		.skip 6,0
 760      0000 
 761               	.global	btn_state
 762               	.global	btn_state
 765               	btn_state:
 766 0009 0000 0000 		.skip 6,0
 766      0000 
 767               	.global	iteration
 768               	.global	iteration
 771               	iteration:
 772 000f 00        		.skip 1,0
 773               	.global	course
 774               	.global	course
 777               	course:
 778 0010 00        		.skip 1,0
 779               	.global	max_dimension
 780               	.global	max_dimension
 783               	max_dimension:
 784 0011 00        		.skip 1,0
 785               	.global	total_dist
 786               	.global	total_dist
 789               	total_dist:
 790 0012 00        		.skip 1,0
 791               	.global	i
 792               	.global	i
 795               	i:
 796 0013 0000      		.skip 2,0
 797               	.global	j
 798               	.global	j
 801               	j:
 802 0015 00        		.skip 1,0
 803               	.global	btn_get_flag
 804               	.global	btn_get_flag
 807               	btn_get_flag:
 808 0016 00        		.skip 1,0
 809               	.global	stepper_flag
 810               	.global	stepper_flag
 813               	stepper_flag:
 814 0017 00        		.skip 1,0
 815               	.global	current_state
 816               	.global	current_state
 819               	current_state:
 820 0018 00        		.skip 1,0
 821               	.global	current_mode
 822               	.global	current_mode
 825               	current_mode:
 826 0019 00        		.skip 1,0
 923               	.Letext0:
DEFINED SYMBOLS
                            *ABS*:00000000 atmega_slave.c
C:\Users\cadavre\AppData\Local\Temp\cccYGqut.s:2      *ABS*:0000003f __SREG__
C:\Users\cadavre\AppData\Local\Temp\cccYGqut.s:3      *ABS*:0000003e __SP_H__
C:\Users\cadavre\AppData\Local\Temp\cccYGqut.s:4      *ABS*:0000003d __SP_L__
C:\Users\cadavre\AppData\Local\Temp\cccYGqut.s:5      *ABS*:00000034 __CCP__
C:\Users\cadavre\AppData\Local\Temp\cccYGqut.s:6      *ABS*:00000000 __tmp_reg__
C:\Users\cadavre\AppData\Local\Temp\cccYGqut.s:7      *ABS*:00000001 __zero_reg__
C:\Users\cadavre\AppData\Local\Temp\cccYGqut.s:18     .text:00000000 motor_ports_init
C:\Users\cadavre\AppData\Local\Temp\cccYGqut.s:62     .text:00000032 ADC_init
C:\Users\cadavre\AppData\Local\Temp\cccYGqut.s:90     .text:00000046 SPI_init
C:\Users\cadavre\AppData\Local\Temp\cccYGqut.s:110    .text:00000050 Timer0_init
C:\Users\cadavre\AppData\Local\Temp\cccYGqut.s:132    .text:0000005e __vector_10
C:\Users\cadavre\AppData\Local\Temp\cccYGqut.s:801    .bss:00000015 j
C:\Users\cadavre\AppData\Local\Temp\cccYGqut.s:765    .bss:00000009 btn_state
C:\Users\cadavre\AppData\Local\Temp\cccYGqut.s:759    .bss:00000003 memory_state
C:\Users\cadavre\AppData\Local\Temp\cccYGqut.s:188    .text:000000b2 __vector_14
C:\Users\cadavre\AppData\Local\Temp\cccYGqut.s:747    .bss:00000000 set_speed
C:\Users\cadavre\AppData\Local\Temp\cccYGqut.s:218    .text:000000d8 main
C:\Users\cadavre\AppData\Local\Temp\cccYGqut.s:819    .bss:00000018 current_state
C:\Users\cadavre\AppData\Local\Temp\cccYGqut.s:795    .bss:00000013 i
C:\Users\cadavre\AppData\Local\Temp\cccYGqut.s:825    .bss:00000019 current_mode
C:\Users\cadavre\AppData\Local\Temp\cccYGqut.s:777    .bss:00000010 course
C:\Users\cadavre\AppData\Local\Temp\cccYGqut.s:771    .bss:0000000f iteration
C:\Users\cadavre\AppData\Local\Temp\cccYGqut.s:807    .bss:00000016 btn_get_flag
C:\Users\cadavre\AppData\Local\Temp\cccYGqut.s:789    .bss:00000012 total_dist
C:\Users\cadavre\AppData\Local\Temp\cccYGqut.s:753    .bss:00000001 motor_speed
C:\Users\cadavre\AppData\Local\Temp\cccYGqut.s:388    .text:000001f0 motor_make_step
C:\Users\cadavre\AppData\Local\Temp\cccYGqut.s:733    .data:00000000 motor_current_step
C:\Users\cadavre\AppData\Local\Temp\cccYGqut.s:511    .text:00000286 motor_move
C:\Users\cadavre\AppData\Local\Temp\cccYGqut.s:739    .data:00000002 motor_pos
C:\Users\cadavre\AppData\Local\Temp\cccYGqut.s:630    .text:00000338 __vector_9
C:\Users\cadavre\AppData\Local\Temp\cccYGqut.s:813    .bss:00000017 stepper_flag
C:\Users\cadavre\AppData\Local\Temp\cccYGqut.s:783    .bss:00000011 max_dimension

UNDEFINED SYMBOLS
__do_copy_data
__do_clear_bss
