   1               		.file	"atmega_slave.c"
   2               	__SREG__ = 0x3f
   3               	__SP_H__ = 0x3e
   4               	__SP_L__ = 0x3d
   5               	__CCP__ = 0x34
   6               	__tmp_reg__ = 0
   7               	__zero_reg__ = 1
  15               	.Ltext0:
  16               	.global	motor_ports_init
  18               	motor_ports_init:
  19               	.LFB0:
  20               	.LM1:
  21               	/* prologue: function */
  22               	/* frame size = 0 */
  23               	/* stack size = 0 */
  24               	.L__stack_usage = 0
  25               	.LM2:
  26 0000 81B3      		in r24,49-32
  27 0002 806F      		ori r24,lo8(-16)
  28 0004 81BB      		out 49-32,r24
  29               	.LM3:
  30 0006 82B3      		in r24,50-32
  31 0008 8F70      		andi r24,lo8(15)
  32 000a 82BB      		out 50-32,r24
  33               	.LM4:
  34 000c 84B3      		in r24,52-32
  35 000e 8C63      		ori r24,lo8(60)
  36 0010 84BB      		out 52-32,r24
  37               	.LM5:
  38 0012 82B3      		in r24,50-32
  39 0014 837C      		andi r24,lo8(-61)
  40 0016 82BB      		out 50-32,r24
  41               	.LM6:
  42 0018 82B3      		in r24,50-32
  43 001a 8063      		ori r24,lo8(48)
  44 001c 82BB      		out 50-32,r24
  45 001e 82B3      		in r24,50-32
  46 0020 8F73      		andi r24,lo8(63)
  47 0022 82BB      		out 50-32,r24
  48               	.LM7:
  49 0024 85B3      		in r24,53-32
  50 0026 8861      		ori r24,lo8(24)
  51 0028 85BB      		out 53-32,r24
  52 002a 85B3      		in r24,53-32
  53 002c 8B7D      		andi r24,lo8(-37)
  54 002e 85BB      		out 53-32,r24
  55               	/* epilogue start */
  56               	.LM8:
  57 0030 0895      		ret
  58               	.LFE0:
  60               	.global	ADC_init
  62               	ADC_init:
  63               	.LFB1:
  64               	.LM9:
  65               	/* prologue: function */
  66               	/* frame size = 0 */
  67               	/* stack size = 0 */
  68               	.L__stack_usage = 0
  69               	.LM10:
  70 0032 87B1      		in r24,39-32
  71 0034 806C      		ori r24,lo8(-64)
  72 0036 87B9      		out 39-32,r24
  73               	.LM11:
  74 0038 3D9A      		sbi 39-32,5
  75               	.LM12:
  76 003a 339A      		sbi 38-32,3
  77               	.LM13:
  78 003c 86B1      		in r24,38-32
  79 003e 8768      		ori r24,lo8(-121)
  80 0040 86B9      		out 38-32,r24
  81               	.LM14:
  82 0042 369A      		sbi 38-32,6
  83               	/* epilogue start */
  84               	.LM15:
  85 0044 0895      		ret
  86               	.LFE1:
  88               	.global	SPI_init
  90               	SPI_init:
  91               	.LFB2:
  92               	.LM16:
  93               	/* prologue: function */
  94               	/* frame size = 0 */
  95               	/* stack size = 0 */
  96               	.L__stack_usage = 0
  97               	.LM17:
  98 0046 BC9A      		sbi 55-32,4
  99               	.LM18:
 100 0048 8DB1      		in r24,45-32
 101 004a 806C      		ori r24,lo8(-64)
 102 004c 8DB9      		out 45-32,r24
 103               	/* epilogue start */
 104               	.LM19:
 105 004e 0895      		ret
 106               	.LFE2:
 108               	.global	Timer0_init
 110               	Timer0_init:
 111               	.LFB3:
 112               	.LM20:
 113               	/* prologue: function */
 114               	/* frame size = 0 */
 115               	/* stack size = 0 */
 116               	.L__stack_usage = 0
 117               	.LM21:
 118 0050 83B7      		in r24,83-32
 119 0052 8260      		ori r24,lo8(2)
 120 0054 83BF      		out 83-32,r24
 121               	.LM22:
 122 0056 89B7      		in r24,89-32
 123 0058 8160      		ori r24,lo8(1)
 124 005a 89BF      		out 89-32,r24
 125               	/* epilogue start */
 126               	.LM23:
 127 005c 0895      		ret
 128               	.LFE3:
 130               	.global	__vector_10
 132               	__vector_10:
 133               	.LFB4:
 134               	.LM24:
 135 005e 1F92      		push __zero_reg__
 136 0060 0F92      		push r0
 137 0062 0FB6      		in r0,__SREG__
 138 0064 0F92      		push r0
 139 0066 1124      		clr __zero_reg__
 140 0068 8F93      		push r24
 141 006a EF93      		push r30
 142 006c FF93      		push r31
 143               	/* prologue: Signal */
 144               	/* frame size = 0 */
 145               	/* stack size = 6 */
 146               	.L__stack_usage = 6
 147               	.LM25:
 148 006e E091 0000 		lds r30,j
 149 0072 F0E0      		ldi r31,lo8(0)
 150 0074 8FB1      		in r24,47-32
 151 0076 E050      		subi r30,lo8(-(btn_state))
 152 0078 F040      		sbci r31,hi8(-(btn_state))
 153 007a 8083      		st Z,r24
 154               	.LM26:
 155 007c 8091 0000 		lds r24,j
 156 0080 8530      		cpi r24,lo8(5)
 157 0082 00F4      		brsh .L6
 158               	.LM27:
 159 0084 8091 0000 		lds r24,j
 160 0088 8F5F      		subi r24,lo8(-(1))
 161 008a 8093 0000 		sts j,r24
 162 008e 00C0      		rjmp .L7
 163               	.L6:
 164               	.LM28:
 165 0090 1092 0000 		sts j,__zero_reg__
 166               	.L7:
 167               	.LM29:
 168 0094 E091 0000 		lds r30,j
 169 0098 F0E0      		ldi r31,lo8(0)
 170 009a E050      		subi r30,lo8(-(memory_state))
 171 009c F040      		sbci r31,hi8(-(memory_state))
 172 009e 8081      		ld r24,Z
 173 00a0 8FB9      		out 47-32,r24
 174               	/* epilogue start */
 175               	.LM30:
 176 00a2 FF91      		pop r31
 177 00a4 EF91      		pop r30
 178 00a6 8F91      		pop r24
 179 00a8 0F90      		pop r0
 180 00aa 0FBE      		out __SREG__,r0
 181 00ac 0F90      		pop r0
 182 00ae 1F90      		pop __zero_reg__
 183 00b0 1895      		reti
 184               	.LFE4:
 186               	.global	__vector_14
 188               	__vector_14:
 189               	.LFB6:
 190               	.LM31:
 191 00b2 1F92      		push __zero_reg__
 192 00b4 0F92      		push r0
 193 00b6 0FB6      		in r0,__SREG__
 194 00b8 0F92      		push r0
 195 00ba 1124      		clr __zero_reg__
 196 00bc 8F93      		push r24
 197               	/* prologue: Signal */
 198               	/* frame size = 0 */
 199               	/* stack size = 4 */
 200               	.L__stack_usage = 4
 201               	.LM32:
 202 00be 85B1      		in r24,37-32
 203 00c0 8093 0000 		sts memory_state+5,r24
 204 00c4 8091 0000 		lds r24,memory_state+5
 205 00c8 8093 0000 		sts set_speed,r24
 206               	/* epilogue start */
 207               	.LM33:
 208 00cc 8F91      		pop r24
 209 00ce 0F90      		pop r0
 210 00d0 0FBE      		out __SREG__,r0
 211 00d2 0F90      		pop r0
 212 00d4 1F90      		pop __zero_reg__
 213 00d6 1895      		reti
 214               	.LFE6:
 216               	.global	main
 218               	main:
 219               	.LFB7:
 220               	.LM34:
 221               	/* prologue: function */
 222               	/* frame size = 0 */
 223               	/* stack size = 0 */
 224               	.L__stack_usage = 0
 225               	.LM35:
 226 00d8 00D0      		rcall motor_ports_init
 227               	.LM36:
 228 00da 00D0      		rcall Timer0_init
 229               	.LM37:
 230 00dc 00D0      		rcall SPI_init
 231               	.LM38:
 232 00de 00D0      		rcall ADC_init
 233               	.LM39:
 234               	/* #APP */
 235               	 ;  148 "atmega_slave.c" 1
 236 00e0 7894      		sei
 237               	 ;  0 "" 2
 238               	.LM40:
 239               	/* #NOAPP */
 240 00e2 8CED      		ldi r24,lo8(-36)
 241               	.L22:
 242               	.LM41:
 243 00e4 9091 0000 		lds r25,current_state
 244 00e8 9130      		cpi r25,lo8(1)
 245 00ea 01F4      		brne .L10
 246               	.LM42:
 247 00ec 9091 0000 		lds r25,btn_state
 248 00f0 9130      		cpi r25,lo8(1)
 249 00f2 01F4      		brne .L11
 250               	.LM43:
 251 00f4 1092 0000 		sts btn_state,__zero_reg__
 252 00f8 00C0      		rjmp .L10
 253               	.L11:
 254               	.LM44:
 255 00fa 9091 0000 		lds r25,btn_state+1
 256 00fe 9130      		cpi r25,lo8(1)
 257 0100 01F4      		brne .L10
 258               	.LM45:
 259 0102 1092 0000 		sts btn_state+1,__zero_reg__
 260               	.L10:
 261               	.LM46:
 262 0106 9091 0000 		lds r25,btn_get_flag
 263 010a 9832      		cpi r25,lo8(40)
 264 010c 01F4      		brne .L22
 265               	.LM47:
 266 010e 9091 0000 		lds r25,btn_state+5
 267 0112 9130      		cpi r25,lo8(1)
 268 0114 01F4      		brne .L13
 269               	.LM48:
 270 0116 2091 0000 		lds r18,current_state
 271 011a 2223      		tst r18
 272 011c 01F0      		breq .L23
 273               	.L13:
 274               	.LM49:
 275 011e 9091 0000 		lds r25,btn_state+5
 276 0122 9230      		cpi r25,lo8(2)
 277 0124 01F4      		brne .L14
 278               	.LM50:
 279 0126 2091 0000 		lds r18,current_state
 280 012a 2130      		cpi r18,lo8(1)
 281 012c 01F4      		brne .L14
 282               	.L23:
 283               	.LM51:
 284 012e 9093 0000 		sts current_state,r25
 285               	.LM52:
 286 0132 1092 0000 		sts btn_state+5,__zero_reg__
 287               	.L14:
 288               	.LM53:
 289 0136 9091 0000 		lds r25,total_dist
 290 013a 9093 0000 		sts memory_state+1,r25
 291               	.LM54:
 292 013e 369A      		sbi 38-32,6
 293               	.LM55:
 294 0140 9091 0000 		lds r25,set_speed
 295 0144 9D3D      		cpi r25,lo8(-35)
 296 0146 00F0      		brlo .L15
 297               	.LM56:
 298 0148 8093 0000 		sts motor_speed,r24
 299 014c 00C0      		rjmp .L16
 300               	.L15:
 301               	.LM57:
 302 014e 9091 0000 		lds r25,set_speed
 303               	.LM58:
 304 0152 9091 0000 		lds r25,set_speed
 305 0156 9093 0000 		sts motor_speed,r25
 306               	.L16:
 307               	.LM59:
 308 015a 9091 0000 		lds r25,set_speed
 309 015e 9D3D      		cpi r25,lo8(-35)
 310 0160 00F0      		brlo .L17
 311               	.LM60:
 312 0162 8093 0000 		sts motor_speed+1,r24
 313 0166 00C0      		rjmp .L18
 314               	.L17:
 315               	.LM61:
 316 0168 9091 0000 		lds r25,set_speed
 317               	.LM62:
 318 016c 9091 0000 		lds r25,set_speed
 319 0170 9093 0000 		sts motor_speed+1,r25
 320               	.L18:
 321               	.LM63:
 322 0174 1092 0000 		sts btn_get_flag,__zero_reg__
 323 0178 00C0      		rjmp .L22
 324               	.LFE7:
 326               	.global	motor_make_step
 328               	motor_make_step:
 329               	.LFB8:
 330               	.LM64:
 331               	.LVL0:
 332               	/* prologue: function */
 333               	/* frame size = 0 */
 334               	/* stack size = 0 */
 335               	.L__stack_usage = 0
 336               	.LM65:
 337 017a 6530      		cpi r22,lo8(5)
 338 017c 00F4      		brsh .L36
 339               	.LM66:
 340 017e 6623      		tst r22
 341 0180 01F0      		breq .L37
 342 0182 00C0      		rjmp .L25
 343               	.L36:
 344               	.LM67:
 345 0184 61E0      		ldi r22,lo8(1)
 346               	.LVL1:
 347 0186 00C0      		rjmp .L25
 348               	.LVL2:
 349               	.L37:
 350               	.LM68:
 351 0188 64E0      		ldi r22,lo8(4)
 352               	.LVL3:
 353               	.L25:
 354               	.LM69:
 355 018a 8823      		tst r24
 356 018c 01F4      		brne .L26
 357               	.LM70:
 358 018e 6330      		cpi r22,lo8(3)
 359 0190 01F0      		breq .L29
 360 0192 6430      		cpi r22,lo8(4)
 361 0194 01F0      		breq .L30
 362 0196 6230      		cpi r22,lo8(2)
 363 0198 01F0      		breq .L28
 364               	.LM71:
 365 019a 92B3      		in r25,50-32
 366 019c 9063      		ori r25,lo8(48)
 367 019e 92BB      		out 50-32,r25
 368 01a0 92B3      		in r25,50-32
 369 01a2 9F73      		andi r25,lo8(63)
 370 01a4 00C0      		rjmp .L38
 371               	.L28:
 372               	.LM72:
 373 01a6 959A      		sbi 50-32,5
 374 01a8 92B3      		in r25,50-32
 375 01aa 9F72      		andi r25,lo8(47)
 376 01ac 00C0      		rjmp .L38
 377               	.L29:
 378               	.LM73:
 379 01ae 92B3      		in r25,50-32
 380 01b0 9066      		ori r25,lo8(96)
 381 01b2 92BB      		out 50-32,r25
 382 01b4 92B3      		in r25,50-32
 383 01b6 9F76      		andi r25,lo8(111)
 384               	.L38:
 385 01b8 92BB      		out 50-32,r25
 386               	.LM74:
 387 01ba 00C0      		rjmp .L31
 388               	.L30:
 389               	.LM75:
 390 01bc 969A      		sbi 50-32,6
 391 01be 92B3      		in r25,50-32
 392 01c0 9F74      		andi r25,lo8(79)
 393 01c2 00C0      		rjmp .L38
 394               	.L26:
 395               	.LM76:
 396 01c4 8130      		cpi r24,lo8(1)
 397 01c6 01F4      		brne .L31
 398               	.LM77:
 399 01c8 6330      		cpi r22,lo8(3)
 400 01ca 01F0      		breq .L34
 401 01cc 6430      		cpi r22,lo8(4)
 402 01ce 01F0      		breq .L35
 403 01d0 6230      		cpi r22,lo8(2)
 404 01d2 01F0      		breq .L33
 405               	.LM78:
 406 01d4 95B3      		in r25,53-32
 407 01d6 9861      		ori r25,lo8(24)
 408 01d8 95BB      		out 53-32,r25
 409 01da 95B3      		in r25,53-32
 410 01dc 9B7D      		andi r25,lo8(-37)
 411 01de 00C0      		rjmp .L39
 412               	.L33:
 413               	.LM79:
 414 01e0 95B3      		in r25,53-32
 415 01e2 9C60      		ori r25,lo8(12)
 416 01e4 95BB      		out 53-32,r25
 417 01e6 95B3      		in r25,53-32
 418 01e8 9F7C      		andi r25,lo8(-49)
 419 01ea 00C0      		rjmp .L39
 420               	.L34:
 421               	.LM80:
 422 01ec 95B3      		in r25,53-32
 423 01ee 9462      		ori r25,lo8(36)
 424 01f0 95BB      		out 53-32,r25
 425 01f2 95B3      		in r25,53-32
 426 01f4 977E      		andi r25,lo8(-25)
 427 01f6 00C0      		rjmp .L39
 428               	.L35:
 429               	.LM81:
 430 01f8 95B3      		in r25,53-32
 431 01fa 9063      		ori r25,lo8(48)
 432 01fc 95BB      		out 53-32,r25
 433 01fe 95B3      		in r25,53-32
 434 0200 937F      		andi r25,lo8(-13)
 435               	.L39:
 436 0202 95BB      		out 53-32,r25
 437               	.L31:
 438               	.LM82:
 439 0204 E82F      		mov r30,r24
 440 0206 F0E0      		ldi r31,lo8(0)
 441 0208 E050      		subi r30,lo8(-(motor_current_step))
 442 020a F040      		sbci r31,hi8(-(motor_current_step))
 443 020c 6083      		st Z,r22
 444               	/* epilogue start */
 445               	.LM83:
 446 020e 0895      		ret
 447               	.LFE8:
 449               	.global	motor_move
 451               	motor_move:
 452               	.LFB9:
 453               	.LM84:
 454               	.LVL4:
 455 0210 0F93      		push r16
 456 0212 1F93      		push r17
 457               	/* prologue: function */
 458               	/* frame size = 0 */
 459               	/* stack size = 2 */
 460               	.L__stack_usage = 2
 461 0214 082F      		mov r16,r24
 462 0216 162F      		mov r17,r22
 463 0218 282F      		mov r18,r24
 464 021a 30E0      		ldi r19,lo8(0)
 465               	.LM85:
 466 021c 6130      		cpi r22,lo8(1)
 467 021e 01F4      		brne .L41
 468               	.LVL5:
 469               	.LM86:
 470 0220 2050      		subi r18,lo8(-(motor_current_step))
 471 0222 3040      		sbci r19,hi8(-(motor_current_step))
 472 0224 F901      		movw r30,r18
 473 0226 6081      		ld r22,Z
 474 0228 6F5F      		subi r22,lo8(-(1))
 475 022a 00C0      		rjmp .L42
 476               	.L41:
 477               	.LM87:
 478 022c 2050      		subi r18,lo8(-(motor_current_step))
 479 022e 3040      		sbci r19,hi8(-(motor_current_step))
 480 0230 F901      		movw r30,r18
 481 0232 6081      		ld r22,Z
 482 0234 6150      		subi r22,lo8(-(-1))
 483               	.L42:
 484               	.LVL6:
 485               	.LM88:
 486 0236 802F      		mov r24,r16
 487 0238 00D0      		rcall motor_make_step
 488               	.LVL7:
 489               	.LM89:
 490 023a 0023      		tst r16
 491 023c 01F4      		brne .L43
 492               	.LM90:
 493 023e 1123      		tst r17
 494 0240 01F4      		brne .L44
 495               	.LM91:
 496 0242 8091 0000 		lds r24,motor_pos
 497 0246 9091 0000 		lds r25,motor_pos+1
 498 024a 0097      		sbiw r24,0
 499 024c 01F4      		brne .L45
 500               	.LM92:
 501 024e 80E9      		ldi r24,lo8(400)
 502 0250 91E0      		ldi r25,hi8(400)
 503 0252 00C0      		rjmp .L48
 504               	.L44:
 505               	.LM93:
 506 0254 1130      		cpi r17,lo8(1)
 507 0256 01F4      		brne .L45
 508               	.LM94:
 509 0258 8091 0000 		lds r24,motor_pos
 510 025c 9091 0000 		lds r25,motor_pos+1
 511 0260 F1E0      		ldi r31,hi8(400)
 512 0262 8039      		cpi r24,lo8(400)
 513 0264 9F07      		cpc r25,r31
 514 0266 01F4      		brne .L47
 515               	.LM95:
 516 0268 1092 0000 		sts motor_pos+1,__zero_reg__
 517 026c 1092 0000 		sts motor_pos,__zero_reg__
 518 0270 00C0      		rjmp .L40
 519               	.L47:
 520               	.LM96:
 521 0272 8091 0000 		lds r24,motor_pos
 522 0276 9091 0000 		lds r25,motor_pos+1
 523 027a 0196      		adiw r24,1
 524 027c 00C0      		rjmp .L48
 525               	.L45:
 526               	.LM97:
 527 027e 8091 0000 		lds r24,motor_pos
 528 0282 9091 0000 		lds r25,motor_pos+1
 529 0286 0197      		sbiw r24,1
 530               	.L48:
 531               	.LM98:
 532 0288 9093 0000 		sts motor_pos+1,r25
 533 028c 8093 0000 		sts motor_pos,r24
 534 0290 00C0      		rjmp .L40
 535               	.L43:
 536               	.LM99:
 537 0292 0130      		cpi r16,lo8(1)
 538 0294 01F4      		brne .L40
 539               	.LM100:
 540 0296 1123      		tst r17
 541 0298 01F4      		brne .L49
 542               	.LM101:
 543 029a 8091 0000 		lds r24,motor_pos+2
 544 029e 9091 0000 		lds r25,motor_pos+2+1
 545 02a2 0197      		sbiw r24,1
 546 02a4 00C0      		rjmp .L50
 547               	.L49:
 548               	.LM102:
 549 02a6 1130      		cpi r17,lo8(1)
 550 02a8 01F4      		brne .L40
 551               	.LM103:
 552 02aa 8091 0000 		lds r24,motor_pos+2
 553 02ae 9091 0000 		lds r25,motor_pos+2+1
 554 02b2 0196      		adiw r24,1
 555               	.L50:
 556 02b4 9093 0000 		sts motor_pos+2+1,r25
 557 02b8 8093 0000 		sts motor_pos+2,r24
 558               	.L40:
 559               	/* epilogue start */
 560               	.LM104:
 561 02bc 1F91      		pop r17
 562               	.LVL8:
 563 02be 0F91      		pop r16
 564               	.LVL9:
 565 02c0 0895      		ret
 566               	.LFE9:
 568               	.global	__vector_9
 570               	__vector_9:
 571               	.LFB5:
 572               	.LM105:
 573 02c2 1F92      		push __zero_reg__
 574 02c4 0F92      		push r0
 575 02c6 0FB6      		in r0,__SREG__
 576 02c8 0F92      		push r0
 577 02ca 1124      		clr __zero_reg__
 578 02cc 2F93      		push r18
 579 02ce 3F93      		push r19
 580 02d0 4F93      		push r20
 581 02d2 5F93      		push r21
 582 02d4 6F93      		push r22
 583 02d6 7F93      		push r23
 584 02d8 8F93      		push r24
 585 02da 9F93      		push r25
 586 02dc AF93      		push r26
 587 02de BF93      		push r27
 588 02e0 EF93      		push r30
 589 02e2 FF93      		push r31
 590               	/* prologue: Signal */
 591               	/* frame size = 0 */
 592               	/* stack size = 15 */
 593               	.L__stack_usage = 15
 594               	.LM106:
 595 02e4 2091 0000 		lds r18,stepper_flag
 596 02e8 4091 0000 		lds r20,motor_speed
 597 02ec 30E0      		ldi r19,lo8(0)
 598 02ee 8FEF      		ldi r24,lo8(255)
 599 02f0 90E0      		ldi r25,hi8(255)
 600 02f2 841B      		sub r24,r20
 601 02f4 9109      		sbc r25,__zero_reg__
 602 02f6 8217      		cp r24,r18
 603 02f8 9307      		cpc r25,r19
 604 02fa 04F4      		brge .L52
 605               	.LM107:
 606 02fc 1092 0000 		sts stepper_flag,__zero_reg__
 607 0300 00C0      		rjmp .L53
 608               	.L52:
 609               	.LM108:
 610 0302 8091 0000 		lds r24,stepper_flag
 611 0306 8F5F      		subi r24,lo8(-(1))
 612 0308 8093 0000 		sts stepper_flag,r24
 613               	.L53:
 614               	.LM109:
 615 030c 8091 0000 		lds r24,stepper_flag
 616 0310 8823      		tst r24
 617 0312 01F4      		brne .L54
 618               	.LM110:
 619 0314 60E0      		ldi r22,lo8(0)
 620 0316 00D0      		rcall motor_move
 621               	.LM111:
 622 0318 81E0      		ldi r24,lo8(1)
 623 031a 60E0      		ldi r22,lo8(0)
 624 031c 00D0      		rcall motor_move
 625               	.LM112:
 626 031e 8091 0000 		lds r24,current_mode
 627 0322 8823      		tst r24
 628 0324 01F0      		breq .L54
 629               	.LM113:
 630 0326 8091 0000 		lds r24,current_mode
 631 032a 8130      		cpi r24,lo8(1)
 632 032c 01F0      		breq .L54
 633               	.LM114:
 634 032e 8091 0000 		lds r24,current_mode
 635 0332 8330      		cpi r24,lo8(3)
 636 0334 01F0      		breq .L54
 637               	.LM115:
 638 0336 8091 0000 		lds r24,current_mode
 639               	.L54:
 640               	.LM116:
 641 033a 8091 0000 		lds r24,btn_get_flag
 642 033e 8F5F      		subi r24,lo8(-(1))
 643 0340 8093 0000 		sts btn_get_flag,r24
 644               	/* epilogue start */
 645               	.LM117:
 646 0344 FF91      		pop r31
 647 0346 EF91      		pop r30
 648 0348 BF91      		pop r27
 649 034a AF91      		pop r26
 650 034c 9F91      		pop r25
 651 034e 8F91      		pop r24
 652 0350 7F91      		pop r23
 653 0352 6F91      		pop r22
 654 0354 5F91      		pop r21
 655 0356 4F91      		pop r20
 656 0358 3F91      		pop r19
 657 035a 2F91      		pop r18
 658 035c 0F90      		pop r0
 659 035e 0FBE      		out __SREG__,r0
 660 0360 0F90      		pop r0
 661 0362 1F90      		pop __zero_reg__
 662 0364 1895      		reti
 663               	.LFE5:
 665               	.global	motor_current_step
 666               		.data
 669               	motor_current_step:
 670 0000 01        		.byte	1
 671 0001 01        		.byte	1
 672               	.global	motor_pos
 675               	motor_pos:
 676 0002 0000      		.word	0
 677 0004 0500      		.word	5
 678               	.global	set_speed
 679               	.global	set_speed
 680               		.section .bss
 683               	set_speed:
 684 0000 00        		.skip 1,0
 685               	.global	motor_speed
 686               	.global	motor_speed
 689               	motor_speed:
 690 0001 0000      		.skip 2,0
 691               	.global	memory_state
 692               	.global	memory_state
 695               	memory_state:
 696 0003 0000 0000 		.skip 6,0
 696      0000 
 697               	.global	btn_state
 698               	.global	btn_state
 701               	btn_state:
 702 0009 0000 0000 		.skip 6,0
 702      0000 
 703               	.global	iteration
 704               	.global	iteration
 707               	iteration:
 708 000f 0000      		.skip 2,0
 709               	.global	dimensions
 710               	.global	dimensions
 713               	dimensions:
 714 0011 0000      		.skip 2,0
 715               	.global	total_dist
 716               	.global	total_dist
 719               	total_dist:
 720 0013 00        		.skip 1,0
 721               	.global	j
 722               	.global	j
 725               	j:
 726 0014 00        		.skip 1,0
 727               	.global	btn_get_flag
 728               	.global	btn_get_flag
 731               	btn_get_flag:
 732 0015 00        		.skip 1,0
 733               	.global	stepper_flag
 734               	.global	stepper_flag
 737               	stepper_flag:
 738 0016 00        		.skip 1,0
 739               	.global	current_state
 740               	.global	current_state
 743               	current_state:
 744 0017 00        		.skip 1,0
 745               	.global	current_mode
 746               	.global	current_mode
 749               	current_mode:
 750 0018 00        		.skip 1,0
 847               	.Letext0:
DEFINED SYMBOLS
                            *ABS*:00000000 atmega_slave.c
C:\Users\cadavre\AppData\Local\Temp\cce6HKab.s:2      *ABS*:0000003f __SREG__
C:\Users\cadavre\AppData\Local\Temp\cce6HKab.s:3      *ABS*:0000003e __SP_H__
C:\Users\cadavre\AppData\Local\Temp\cce6HKab.s:4      *ABS*:0000003d __SP_L__
C:\Users\cadavre\AppData\Local\Temp\cce6HKab.s:5      *ABS*:00000034 __CCP__
C:\Users\cadavre\AppData\Local\Temp\cce6HKab.s:6      *ABS*:00000000 __tmp_reg__
C:\Users\cadavre\AppData\Local\Temp\cce6HKab.s:7      *ABS*:00000001 __zero_reg__
C:\Users\cadavre\AppData\Local\Temp\cce6HKab.s:18     .text:00000000 motor_ports_init
C:\Users\cadavre\AppData\Local\Temp\cce6HKab.s:62     .text:00000032 ADC_init
C:\Users\cadavre\AppData\Local\Temp\cce6HKab.s:90     .text:00000046 SPI_init
C:\Users\cadavre\AppData\Local\Temp\cce6HKab.s:110    .text:00000050 Timer0_init
C:\Users\cadavre\AppData\Local\Temp\cce6HKab.s:132    .text:0000005e __vector_10
C:\Users\cadavre\AppData\Local\Temp\cce6HKab.s:725    .bss:00000014 j
C:\Users\cadavre\AppData\Local\Temp\cce6HKab.s:701    .bss:00000009 btn_state
C:\Users\cadavre\AppData\Local\Temp\cce6HKab.s:695    .bss:00000003 memory_state
C:\Users\cadavre\AppData\Local\Temp\cce6HKab.s:188    .text:000000b2 __vector_14
C:\Users\cadavre\AppData\Local\Temp\cce6HKab.s:683    .bss:00000000 set_speed
C:\Users\cadavre\AppData\Local\Temp\cce6HKab.s:218    .text:000000d8 main
C:\Users\cadavre\AppData\Local\Temp\cce6HKab.s:743    .bss:00000017 current_state
C:\Users\cadavre\AppData\Local\Temp\cce6HKab.s:731    .bss:00000015 btn_get_flag
C:\Users\cadavre\AppData\Local\Temp\cce6HKab.s:719    .bss:00000013 total_dist
C:\Users\cadavre\AppData\Local\Temp\cce6HKab.s:689    .bss:00000001 motor_speed
C:\Users\cadavre\AppData\Local\Temp\cce6HKab.s:328    .text:0000017a motor_make_step
C:\Users\cadavre\AppData\Local\Temp\cce6HKab.s:669    .data:00000000 motor_current_step
C:\Users\cadavre\AppData\Local\Temp\cce6HKab.s:451    .text:00000210 motor_move
C:\Users\cadavre\AppData\Local\Temp\cce6HKab.s:675    .data:00000002 motor_pos
C:\Users\cadavre\AppData\Local\Temp\cce6HKab.s:570    .text:000002c2 __vector_9
C:\Users\cadavre\AppData\Local\Temp\cce6HKab.s:737    .bss:00000016 stepper_flag
C:\Users\cadavre\AppData\Local\Temp\cce6HKab.s:749    .bss:00000018 current_mode
C:\Users\cadavre\AppData\Local\Temp\cce6HKab.s:707    .bss:0000000f iteration
C:\Users\cadavre\AppData\Local\Temp\cce6HKab.s:713    .bss:00000011 dimensions

UNDEFINED SYMBOLS
__do_copy_data
__do_clear_bss
