
atmega_master.elf:     file format elf32-avr

Sections:
Idx Name          Size      VMA       LMA       File off  Algn
  0 .text         00000798  00000000  00000000  00000094  2**1
                  CONTENTS, ALLOC, LOAD, READONLY, CODE
  1 .data         00000056  00800060  00000798  0000082c  2**0
                  CONTENTS, ALLOC, LOAD, DATA
  2 .bss          00000042  008000b6  008000b6  00000882  2**0
                  ALLOC
  3 .stab         00000954  00000000  00000000  00000884  2**2
                  CONTENTS, READONLY, DEBUGGING
  4 .stabstr      0000014d  00000000  00000000  000011d8  2**0
                  CONTENTS, READONLY, DEBUGGING
  5 .debug_aranges 00000060  00000000  00000000  00001325  2**0
                  CONTENTS, READONLY, DEBUGGING
  6 .debug_pubnames 000002ca  00000000  00000000  00001385  2**0
                  CONTENTS, READONLY, DEBUGGING
  7 .debug_info   00000a6c  00000000  00000000  0000164f  2**0
                  CONTENTS, READONLY, DEBUGGING
  8 .debug_abbrev 00000486  00000000  00000000  000020bb  2**0
                  CONTENTS, READONLY, DEBUGGING
  9 .debug_line   00000cf5  00000000  00000000  00002541  2**0
                  CONTENTS, READONLY, DEBUGGING
 10 .debug_frame  00000260  00000000  00000000  00003238  2**2
                  CONTENTS, READONLY, DEBUGGING
 11 .debug_str    00000379  00000000  00000000  00003498  2**0
                  CONTENTS, READONLY, DEBUGGING
 12 .debug_loc    0000035d  00000000  00000000  00003811  2**0
                  CONTENTS, READONLY, DEBUGGING
 13 .debug_pubtypes 00000081  00000000  00000000  00003b6e  2**0
                  CONTENTS, READONLY, DEBUGGING

Disassembly of section .text:

00000000 <__vectors>:
   0:	12 c0       	rjmp	.+36     	; 0x26 <__ctors_end>
   2:	2c c0       	rjmp	.+88     	; 0x5c <__bad_interrupt>
   4:	2b c0       	rjmp	.+86     	; 0x5c <__bad_interrupt>
   6:	56 c0       	rjmp	.+172    	; 0xb4 <__vector_3>
   8:	29 c0       	rjmp	.+82     	; 0x5c <__bad_interrupt>
   a:	28 c0       	rjmp	.+80     	; 0x5c <__bad_interrupt>
   c:	27 c0       	rjmp	.+78     	; 0x5c <__bad_interrupt>
   e:	26 c0       	rjmp	.+76     	; 0x5c <__bad_interrupt>
  10:	25 c0       	rjmp	.+74     	; 0x5c <__bad_interrupt>
  12:	24 c0       	rjmp	.+72     	; 0x5c <__bad_interrupt>
  14:	23 c0       	rjmp	.+70     	; 0x5c <__bad_interrupt>
  16:	27 c3       	rjmp	.+1614   	; 0x666 <__vector_11>
  18:	47 c3       	rjmp	.+1678   	; 0x6a8 <__vector_12>
  1a:	20 c0       	rjmp	.+64     	; 0x5c <__bad_interrupt>
  1c:	1f c0       	rjmp	.+62     	; 0x5c <__bad_interrupt>
  1e:	1e c0       	rjmp	.+60     	; 0x5c <__bad_interrupt>
  20:	1d c0       	rjmp	.+58     	; 0x5c <__bad_interrupt>
  22:	1c c0       	rjmp	.+56     	; 0x5c <__bad_interrupt>
  24:	1b c0       	rjmp	.+54     	; 0x5c <__bad_interrupt>

00000026 <__ctors_end>:
  26:	11 24       	eor	r1, r1
  28:	1f be       	out	0x3f, r1	; 63
  2a:	cf e5       	ldi	r28, 0x5F	; 95
  2c:	d4 e0       	ldi	r29, 0x04	; 4
  2e:	de bf       	out	0x3e, r29	; 62
  30:	cd bf       	out	0x3d, r28	; 61

00000032 <__do_copy_data>:
  32:	10 e0       	ldi	r17, 0x00	; 0
  34:	a0 e6       	ldi	r26, 0x60	; 96
  36:	b0 e0       	ldi	r27, 0x00	; 0
  38:	e8 e9       	ldi	r30, 0x98	; 152
  3a:	f7 e0       	ldi	r31, 0x07	; 7
  3c:	02 c0       	rjmp	.+4      	; 0x42 <__SREG__+0x3>
  3e:	05 90       	lpm	r0, Z+
  40:	0d 92       	st	X+, r0
  42:	a6 3b       	cpi	r26, 0xB6	; 182
  44:	b1 07       	cpc	r27, r17
  46:	d9 f7       	brne	.-10     	; 0x3e <__SP_H__>

00000048 <__do_clear_bss>:
  48:	10 e0       	ldi	r17, 0x00	; 0
  4a:	a6 eb       	ldi	r26, 0xB6	; 182
  4c:	b0 e0       	ldi	r27, 0x00	; 0
  4e:	01 c0       	rjmp	.+2      	; 0x52 <.do_clear_bss_start>

00000050 <.do_clear_bss_loop>:
  50:	1d 92       	st	X+, r1

00000052 <.do_clear_bss_start>:
  52:	a8 3f       	cpi	r26, 0xF8	; 248
  54:	b1 07       	cpc	r27, r17
  56:	e1 f7       	brne	.-8      	; 0x50 <.do_clear_bss_loop>
  58:	0a d1       	rcall	.+532    	; 0x26e <main>
  5a:	9c c3       	rjmp	.+1848   	; 0x794 <_exit>

0000005c <__bad_interrupt>:
  5c:	d1 cf       	rjmp	.-94     	; 0x0 <__vectors>

0000005e <Timer2_init>:

/*
 * Timer2 initialization
 */
void Timer2_init(void) {
	TCCR2 |= (1<<WGM21);						// CTC
  5e:	85 b5       	in	r24, 0x25	; 37
  60:	88 60       	ori	r24, 0x08	; 8
  62:	85 bd       	out	0x25, r24	; 37
	TCCR2 |= (1<<CS21)|(1<<CS22);				// prescaler 256
  64:	85 b5       	in	r24, 0x25	; 37
  66:	86 60       	ori	r24, 0x06	; 6
  68:	85 bd       	out	0x25, r24	; 37
	OCR2 = 0x24;								// 0x24 = 36 = ~1.15ms
  6a:	84 e2       	ldi	r24, 0x24	; 36
  6c:	83 bd       	out	0x23, r24	; 35
	TIMSK |= (1<<OCIE2);						// compare match IRQ
  6e:	89 b7       	in	r24, 0x39	; 57
  70:	80 68       	ori	r24, 0x80	; 128
  72:	89 bf       	out	0x39, r24	; 57
}
  74:	08 95       	ret

00000076 <sensors_init>:

/*
 * Initialization of input ports for sensors
 */
void sensors_init(void) {
	DDRC &= ~(SEN_L|SEN_C|SEN_R|SEN_LL|SEN_RR);
  76:	84 b3       	in	r24, 0x14	; 20
  78:	80 7e       	andi	r24, 0xE0	; 224
  7a:	84 bb       	out	0x14, r24	; 20
	PORTC |= SEN_L|SEN_C|SEN_R|SEN_LL|SEN_RR;
  7c:	85 b3       	in	r24, 0x15	; 21
  7e:	8f 61       	ori	r24, 0x1F	; 31
  80:	85 bb       	out	0x15, r24	; 21
}
  82:	08 95       	ret

00000084 <controls_init>:

/*
 * Initialization of input ports for control buttons
 */
void controls_init(void) {
	DDRB &= ~(BTN_START|BTN_RESET);
  84:	87 b3       	in	r24, 0x17	; 23
  86:	8c 7f       	andi	r24, 0xFC	; 252
  88:	87 bb       	out	0x17, r24	; 23
	PORTB |= BTN_START|BTN_RESET;
  8a:	88 b3       	in	r24, 0x18	; 24
  8c:	83 60       	ori	r24, 0x03	; 3
  8e:	88 bb       	out	0x18, r24	; 24
}
  90:	08 95       	ret

00000092 <SPI_init>:

/*
 * SPI transfer interface initialization
 */
void SPI_init(void) {
	DDRB |= MOSI|SCK|SS|SS_CTRL;				// master out
  92:	87 b3       	in	r24, 0x17	; 23
  94:	8c 66       	ori	r24, 0x6C	; 108
  96:	87 bb       	out	0x17, r24	; 23
	PORTB |= SS;								// SS=H
  98:	c2 9a       	sbi	0x18, 2	; 24
	SPCR |= (1<<SPE)|(1<<MSTR);					// no-prescaler
  9a:	8d b1       	in	r24, 0x0d	; 13
  9c:	80 65       	ori	r24, 0x50	; 80
  9e:	8d b9       	out	0x0d, r24	; 13
}
  a0:	08 95       	ret

000000a2 <SPI_SS_low>:

/*
 * Set SS line in transfer mode
 */
void SPI_SS_low(void) {
	PORTB &= ~SS_CTRL;
  a2:	c6 98       	cbi	0x18, 6	; 24
}
  a4:	08 95       	ret

000000a6 <SPI_SS_high>:

/*
 * Set SS line idle
 */
void SPI_SS_high(void) {
	PORTB |= SS_CTRL;
  a6:	c6 9a       	sbi	0x18, 6	; 24
}
  a8:	08 95       	ret

000000aa <SPI_transfer>:

/*
 * SPI transfer execution
 */
uint8_t SPI_transfer(uint8_t byte) {
	SPDR = byte;
  aa:	8f b9       	out	0x0f, r24	; 15
	while( !(SPSR & (1<<SPIF)) );
  ac:	77 9b       	sbis	0x0e, 7	; 14
  ae:	fe cf       	rjmp	.-4      	; 0xac <SPI_transfer+0x2>
	return SPDR;
  b0:	8f b1       	in	r24, 0x0f	; 15
}
  b2:	08 95       	ret

000000b4 <__vector_3>:

/*
 * Timer2 interrupt handle
 * - Makes SPI connection and transfers data
 */
ISR(TIMER2_COMP_vect) {
  b4:	1f 92       	push	r1
  b6:	0f 92       	push	r0
  b8:	0f b6       	in	r0, 0x3f	; 63
  ba:	0f 92       	push	r0
  bc:	11 24       	eor	r1, r1
  be:	2f 93       	push	r18
  c0:	3f 93       	push	r19
  c2:	4f 93       	push	r20
  c4:	5f 93       	push	r21
  c6:	6f 93       	push	r22
  c8:	7f 93       	push	r23
  ca:	8f 93       	push	r24
  cc:	9f 93       	push	r25
  ce:	af 93       	push	r26
  d0:	bf 93       	push	r27
  d2:	cf 93       	push	r28
  d4:	df 93       	push	r29
  d6:	ef 93       	push	r30
  d8:	ff 93       	push	r31
	SPI_SS_low();
  da:	e3 df       	rcall	.-58     	; 0xa2 <SPI_SS_low>
	memory_state[j] = SPI_transfer(btn_state[j]);
  dc:	80 91 c3 00 	lds	r24, 0x00C3
  e0:	c8 2f       	mov	r28, r24
  e2:	d0 e0       	ldi	r29, 0x00	; 0
  e4:	e0 91 c3 00 	lds	r30, 0x00C3
  e8:	f0 e0       	ldi	r31, 0x00	; 0
  ea:	ea 54       	subi	r30, 0x4A	; 74
  ec:	ff 4f       	sbci	r31, 0xFF	; 255
  ee:	80 81       	ld	r24, Z
  f0:	dc df       	rcall	.-72     	; 0xaa <SPI_transfer>
  f2:	c4 54       	subi	r28, 0x44	; 68
  f4:	df 4f       	sbci	r29, 0xFF	; 255
  f6:	88 83       	st	Y, r24
	SPI_SS_high();
  f8:	d6 df       	rcall	.-84     	; 0xa6 <SPI_SS_high>
	if(j<5) { // send 6 bytes
  fa:	80 91 c3 00 	lds	r24, 0x00C3
  fe:	85 30       	cpi	r24, 0x05	; 5
 100:	30 f4       	brcc	.+12     	; 0x10e <__vector_3+0x5a>
		j++;
 102:	80 91 c3 00 	lds	r24, 0x00C3
 106:	8f 5f       	subi	r24, 0xFF	; 255
 108:	80 93 c3 00 	sts	0x00C3, r24
 10c:	02 c0       	rjmp	.+4      	; 0x112 <__vector_3+0x5e>
	} else {
		j = 0;
 10e:	10 92 c3 00 	sts	0x00C3, r1
	}
	refresh_flag++;
 112:	80 91 c2 00 	lds	r24, 0x00C2
 116:	8f 5f       	subi	r24, 0xFF	; 255
 118:	80 93 c2 00 	sts	0x00C2, r24
}
 11c:	ff 91       	pop	r31
 11e:	ef 91       	pop	r30
 120:	df 91       	pop	r29
 122:	cf 91       	pop	r28
 124:	bf 91       	pop	r27
 126:	af 91       	pop	r26
 128:	9f 91       	pop	r25
 12a:	8f 91       	pop	r24
 12c:	7f 91       	pop	r23
 12e:	6f 91       	pop	r22
 130:	5f 91       	pop	r21
 132:	4f 91       	pop	r20
 134:	3f 91       	pop	r19
 136:	2f 91       	pop	r18
 138:	0f 90       	pop	r0
 13a:	0f be       	out	0x3f, r0	; 63
 13c:	0f 90       	pop	r0
 13e:	1f 90       	pop	r1
 140:	18 95       	reti

00000142 <lcd_welcome>:

/*
 * Show welcome message on boot
 */
void lcd_welcome(void) {
	lcd_cls();
 142:	02 d2       	rcall	.+1028   	; 0x548 <lcd_cls>
	lcd_locate(0,2);
 144:	80 e0       	ldi	r24, 0x00	; 0
 146:	62 e0       	ldi	r22, 0x02	; 2
 148:	f8 d1       	rcall	.+1008   	; 0x53a <lcd_locate>
	lcd_str("Mechatronika");
 14a:	80 e6       	ldi	r24, 0x60	; 96
 14c:	90 e0       	ldi	r25, 0x00	; 0
 14e:	b6 d1       	rcall	.+876    	; 0x4bc <lcd_str>
	lcd_locate(1,3);
 150:	81 e0       	ldi	r24, 0x01	; 1
 152:	63 e0       	ldi	r22, 0x03	; 3
 154:	f2 d1       	rcall	.+996    	; 0x53a <lcd_locate>
	lcd_str("AiR, gr.IV");
 156:	8d e6       	ldi	r24, 0x6D	; 109
 158:	90 e0       	ldi	r25, 0x00	; 0
 15a:	b0 d1       	rcall	.+864    	; 0x4bc <lcd_str>
}
 15c:	08 95       	ret

0000015e <lcd_debug>:

void lcd_debug(void) {
	lcd_cls();
 15e:	f4 d1       	rcall	.+1000   	; 0x548 <lcd_cls>
	lcd_locate(0,0);
 160:	80 e0       	ldi	r24, 0x00	; 0
 162:	60 e0       	ldi	r22, 0x00	; 0
 164:	ea d1       	rcall	.+980    	; 0x53a <lcd_locate>
	lcd_int(btn_state[0] == 1);
 166:	20 91 b6 00 	lds	r18, 0x00B6
 16a:	81 e0       	ldi	r24, 0x01	; 1
 16c:	90 e0       	ldi	r25, 0x00	; 0
 16e:	21 30       	cpi	r18, 0x01	; 1
 170:	11 f0       	breq	.+4      	; 0x176 <lcd_debug+0x18>
 172:	80 e0       	ldi	r24, 0x00	; 0
 174:	90 e0       	ldi	r25, 0x00	; 0
 176:	b2 d1       	rcall	.+868    	; 0x4dc <lcd_int>
	lcd_locate(0,1);
 178:	80 e0       	ldi	r24, 0x00	; 0
 17a:	61 e0       	ldi	r22, 0x01	; 1
 17c:	de d1       	rcall	.+956    	; 0x53a <lcd_locate>
	lcd_int(btn_state[1] == 1);
 17e:	20 91 b7 00 	lds	r18, 0x00B7
 182:	81 e0       	ldi	r24, 0x01	; 1
 184:	90 e0       	ldi	r25, 0x00	; 0
 186:	21 30       	cpi	r18, 0x01	; 1
 188:	11 f0       	breq	.+4      	; 0x18e <lcd_debug+0x30>
 18a:	80 e0       	ldi	r24, 0x00	; 0
 18c:	90 e0       	ldi	r25, 0x00	; 0
 18e:	a6 d1       	rcall	.+844    	; 0x4dc <lcd_int>
	lcd_locate(0,2);
 190:	80 e0       	ldi	r24, 0x00	; 0
 192:	62 e0       	ldi	r22, 0x02	; 2
 194:	d2 d1       	rcall	.+932    	; 0x53a <lcd_locate>
	lcd_int(btn_state[2] == 1);
 196:	20 91 b8 00 	lds	r18, 0x00B8
 19a:	81 e0       	ldi	r24, 0x01	; 1
 19c:	90 e0       	ldi	r25, 0x00	; 0
 19e:	21 30       	cpi	r18, 0x01	; 1
 1a0:	11 f0       	breq	.+4      	; 0x1a6 <lcd_debug+0x48>
 1a2:	80 e0       	ldi	r24, 0x00	; 0
 1a4:	90 e0       	ldi	r25, 0x00	; 0
 1a6:	9a d1       	rcall	.+820    	; 0x4dc <lcd_int>
	lcd_locate(0,3);
 1a8:	80 e0       	ldi	r24, 0x00	; 0
 1aa:	63 e0       	ldi	r22, 0x03	; 3
 1ac:	c6 d1       	rcall	.+908    	; 0x53a <lcd_locate>
	lcd_int(btn_state[3] == 1);
 1ae:	20 91 b9 00 	lds	r18, 0x00B9
 1b2:	81 e0       	ldi	r24, 0x01	; 1
 1b4:	90 e0       	ldi	r25, 0x00	; 0
 1b6:	21 30       	cpi	r18, 0x01	; 1
 1b8:	11 f0       	breq	.+4      	; 0x1be <lcd_debug+0x60>
 1ba:	80 e0       	ldi	r24, 0x00	; 0
 1bc:	90 e0       	ldi	r25, 0x00	; 0
 1be:	8e d1       	rcall	.+796    	; 0x4dc <lcd_int>
	lcd_locate(0,4);
 1c0:	80 e0       	ldi	r24, 0x00	; 0
 1c2:	64 e0       	ldi	r22, 0x04	; 4
 1c4:	ba d1       	rcall	.+884    	; 0x53a <lcd_locate>
	lcd_int(btn_state[4] == 1);
 1c6:	20 91 ba 00 	lds	r18, 0x00BA
 1ca:	81 e0       	ldi	r24, 0x01	; 1
 1cc:	90 e0       	ldi	r25, 0x00	; 0
 1ce:	21 30       	cpi	r18, 0x01	; 1
 1d0:	11 f0       	breq	.+4      	; 0x1d6 <lcd_debug+0x78>
 1d2:	80 e0       	ldi	r24, 0x00	; 0
 1d4:	90 e0       	ldi	r25, 0x00	; 0
 1d6:	82 d1       	rcall	.+772    	; 0x4dc <lcd_int>
	lcd_locate(0,5);
 1d8:	80 e0       	ldi	r24, 0x00	; 0
 1da:	65 e0       	ldi	r22, 0x05	; 5
 1dc:	ae d1       	rcall	.+860    	; 0x53a <lcd_locate>
	lcd_int(btn_state[5] == BTN_L ? 1 : btn_state[5] == BTN_R ? 2 : 0);
 1de:	80 91 bb 00 	lds	r24, 0x00BB
 1e2:	81 30       	cpi	r24, 0x01	; 1
 1e4:	39 f0       	breq	.+14     	; 0x1f4 <lcd_debug+0x96>
 1e6:	80 91 bb 00 	lds	r24, 0x00BB
 1ea:	82 30       	cpi	r24, 0x02	; 2
 1ec:	31 f4       	brne	.+12     	; 0x1fa <lcd_debug+0x9c>
 1ee:	82 e0       	ldi	r24, 0x02	; 2
 1f0:	90 e0       	ldi	r25, 0x00	; 0
 1f2:	05 c0       	rjmp	.+10     	; 0x1fe <lcd_debug+0xa0>
 1f4:	81 e0       	ldi	r24, 0x01	; 1
 1f6:	90 e0       	ldi	r25, 0x00	; 0
 1f8:	02 c0       	rjmp	.+4      	; 0x1fe <lcd_debug+0xa0>
 1fa:	80 e0       	ldi	r24, 0x00	; 0
 1fc:	90 e0       	ldi	r25, 0x00	; 0
 1fe:	6e d1       	rcall	.+732    	; 0x4dc <lcd_int>
	lcd_locate(0,7);
 200:	80 e0       	ldi	r24, 0x00	; 0
 202:	67 e0       	ldi	r22, 0x07	; 7
 204:	9a d1       	rcall	.+820    	; 0x53a <lcd_locate>
	lcd_str("ST");
 206:	88 e7       	ldi	r24, 0x78	; 120
 208:	90 e0       	ldi	r25, 0x00	; 0
 20a:	58 d1       	rcall	.+688    	; 0x4bc <lcd_str>
	lcd_locate(0,9);
 20c:	80 e0       	ldi	r24, 0x00	; 0
 20e:	69 e0       	ldi	r22, 0x09	; 9
 210:	94 d1       	rcall	.+808    	; 0x53a <lcd_locate>
	lcd_int(memory_state[0]);
 212:	80 91 bc 00 	lds	r24, 0x00BC
 216:	90 e0       	ldi	r25, 0x00	; 0
 218:	61 d1       	rcall	.+706    	; 0x4dc <lcd_int>
	lcd_locate(0,11);
 21a:	80 e0       	ldi	r24, 0x00	; 0
 21c:	6b e0       	ldi	r22, 0x0B	; 11
 21e:	8d d1       	rcall	.+794    	; 0x53a <lcd_locate>
	lcd_str("MO");
 220:	8b e7       	ldi	r24, 0x7B	; 123
 222:	90 e0       	ldi	r25, 0x00	; 0
 224:	4b d1       	rcall	.+662    	; 0x4bc <lcd_str>
	lcd_locate(0,13);
 226:	80 e0       	ldi	r24, 0x00	; 0
 228:	6d e0       	ldi	r22, 0x0D	; 13
 22a:	87 d1       	rcall	.+782    	; 0x53a <lcd_locate>
	lcd_int(memory_state[1]);
 22c:	80 91 bd 00 	lds	r24, 0x00BD
 230:	90 e0       	ldi	r25, 0x00	; 0
 232:	54 d1       	rcall	.+680    	; 0x4dc <lcd_int>

	lcd_locate(1,0);
 234:	81 e0       	ldi	r24, 0x01	; 1
 236:	60 e0       	ldi	r22, 0x00	; 0
 238:	80 d1       	rcall	.+768    	; 0x53a <lcd_locate>
	lcd_int(memory_state[2]);
 23a:	80 91 be 00 	lds	r24, 0x00BE
 23e:	90 e0       	ldi	r25, 0x00	; 0
 240:	4d d1       	rcall	.+666    	; 0x4dc <lcd_int>
	lcd_locate(1,3);
 242:	81 e0       	ldi	r24, 0x01	; 1
 244:	63 e0       	ldi	r22, 0x03	; 3
 246:	79 d1       	rcall	.+754    	; 0x53a <lcd_locate>
	lcd_int(memory_state[3]);
 248:	80 91 bf 00 	lds	r24, 0x00BF
 24c:	90 e0       	ldi	r25, 0x00	; 0
 24e:	46 d1       	rcall	.+652    	; 0x4dc <lcd_int>
	lcd_locate(1,6);
 250:	81 e0       	ldi	r24, 0x01	; 1
 252:	66 e0       	ldi	r22, 0x06	; 6
 254:	72 d1       	rcall	.+740    	; 0x53a <lcd_locate>
	lcd_int(memory_state[4]);
 256:	80 91 c0 00 	lds	r24, 0x00C0
 25a:	90 e0       	ldi	r25, 0x00	; 0
 25c:	3f d1       	rcall	.+638    	; 0x4dc <lcd_int>
	lcd_locate(1,9);
 25e:	81 e0       	ldi	r24, 0x01	; 1
 260:	69 e0       	ldi	r22, 0x09	; 9
 262:	6b d1       	rcall	.+726    	; 0x53a <lcd_locate>
	lcd_int(memory_state[5]);
 264:	80 91 c1 00 	lds	r24, 0x00C1
 268:	90 e0       	ldi	r25, 0x00	; 0
 26a:	38 d1       	rcall	.+624    	; 0x4dc <lcd_int>
}
 26c:	08 95       	ret

0000026e <main>:
	refresh_flag++;
}

/************************************************* MAIN *************************************************/
int main(void)
{
 26e:	ff 92       	push	r15
 270:	0f 93       	push	r16
 272:	1f 93       	push	r17
	controls_init();
 274:	07 df       	rcall	.-498    	; 0x84 <controls_init>
	sensors_init();
 276:	ff de       	rcall	.-514    	; 0x76 <sensors_init>
	Timer2_init();
 278:	f2 de       	rcall	.-540    	; 0x5e <Timer2_init>
	SPI_init();
 27a:	0b df       	rcall	.-490    	; 0x92 <SPI_init>
	USART_init(__UBRR);
 27c:	83 e3       	ldi	r24, 0x33	; 51
 27e:	90 e0       	ldi	r25, 0x00	; 0
 280:	97 d1       	rcall	.+814    	; 0x5b0 <USART_init>
	OSCCAL = 152; // oscilator calibration for USART communication
 282:	88 e9       	ldi	r24, 0x98	; 152
 284:	81 bf       	out	0x31, r24	; 49
	sei();
 286:	78 94       	sei
	lcd_init();
 288:	62 d1       	rcall	.+708    	; 0x54e <lcd_init>
	lcd_defchar(0x80, separator_sign);
 28a:	80 e8       	ldi	r24, 0x80	; 128
 28c:	6d ea       	ldi	r22, 0xAD	; 173
 28e:	70 e0       	ldi	r23, 0x00	; 0
 290:	3f d1       	rcall	.+638    	; 0x510 <lcd_defchar>
	lcd_welcome();
 292:	57 df       	rcall	.-338    	; 0x142 <lcd_welcome>
	while(1)
	{
		if (!(PINB&BTN_START)) {
			btn_state[5] = BTN_L;
 294:	11 e0       	ldi	r17, 0x01	; 1
		} else if (!(PINB&BTN_RESET)) {
			btn_state[5] = BTN_R;
 296:	82 e0       	ldi	r24, 0x02	; 2
 298:	f8 2e       	mov	r15, r24
			for( int k=0; k<5; k++ ) {
				btn_state[k] = BTN_OFF;
			}
		}

		if ( (refresh_flag % LCD_REFRESH_TICK) == 0 ) {
 29a:	00 e5       	ldi	r16, 0x50	; 80
	lcd_init();
	lcd_defchar(0x80, separator_sign);
	lcd_welcome();
	while(1)
	{
		if (!(PINB&BTN_START)) {
 29c:	b0 99       	sbic	0x16, 0	; 22
 29e:	03 c0       	rjmp	.+6      	; 0x2a6 <main+0x38>
			btn_state[5] = BTN_L;
 2a0:	10 93 bb 00 	sts	0x00BB, r17
 2a4:	07 c0       	rjmp	.+14     	; 0x2b4 <main+0x46>
		} else if (!(PINB&BTN_RESET)) {
 2a6:	b1 99       	sbic	0x16, 1	; 22
 2a8:	03 c0       	rjmp	.+6      	; 0x2b0 <main+0x42>
			btn_state[5] = BTN_R;
 2aa:	f0 92 bb 00 	sts	0x00BB, r15
 2ae:	02 c0       	rjmp	.+4      	; 0x2b4 <main+0x46>
		} else {
			btn_state[5] = BTN_OFF;
 2b0:	10 92 bb 00 	sts	0x00BB, r1
		}

		if (!(PINC&SEN_C)) {
 2b4:	98 99       	sbic	0x13, 0	; 19
 2b6:	03 c0       	rjmp	.+6      	; 0x2be <main+0x50>
			btn_state[0] = BTN_ON;
 2b8:	10 93 b6 00 	sts	0x00B6, r17
 2bc:	1b c0       	rjmp	.+54     	; 0x2f4 <main+0x86>
		} else if (!(PINC&SEN_L)) {
 2be:	99 99       	sbic	0x13, 1	; 19
 2c0:	03 c0       	rjmp	.+6      	; 0x2c8 <main+0x5a>
			btn_state[1] = BTN_ON;
 2c2:	10 93 b7 00 	sts	0x00B7, r17
 2c6:	16 c0       	rjmp	.+44     	; 0x2f4 <main+0x86>
		} else if (!(PINC&SEN_R)) {
 2c8:	9a 99       	sbic	0x13, 2	; 19
 2ca:	03 c0       	rjmp	.+6      	; 0x2d2 <main+0x64>
			// no sensor
			btn_state[2] = 0;
 2cc:	10 92 b8 00 	sts	0x00B8, r1
 2d0:	11 c0       	rjmp	.+34     	; 0x2f4 <main+0x86>
		} else if (!(PINC&SEN_LL)) {
 2d2:	9b 99       	sbic	0x13, 3	; 19
 2d4:	03 c0       	rjmp	.+6      	; 0x2dc <main+0x6e>
			// no sensor
			btn_state[3] = 0;
 2d6:	10 92 b9 00 	sts	0x00B9, r1
 2da:	0c c0       	rjmp	.+24     	; 0x2f4 <main+0x86>
		} else if (!(PINC&SEN_RR)) {
 2dc:	9c 9b       	sbis	0x13, 4	; 19
 2de:	08 c0       	rjmp	.+16     	; 0x2f0 <main+0x82>
			// no sensor
			btn_state[4] = 0;
		} else {
			for( int k=0; k<5; k++ ) {
				btn_state[k] = BTN_OFF;
 2e0:	10 92 b6 00 	sts	0x00B6, r1
 2e4:	10 92 b7 00 	sts	0x00B7, r1
 2e8:	10 92 b8 00 	sts	0x00B8, r1
 2ec:	10 92 b9 00 	sts	0x00B9, r1
		} else if (!(PINC&SEN_LL)) {
			// no sensor
			btn_state[3] = 0;
		} else if (!(PINC&SEN_RR)) {
			// no sensor
			btn_state[4] = 0;
 2f0:	10 92 ba 00 	sts	0x00BA, r1
			for( int k=0; k<5; k++ ) {
				btn_state[k] = BTN_OFF;
			}
		}

		if ( (refresh_flag % LCD_REFRESH_TICK) == 0 ) {
 2f4:	80 91 c2 00 	lds	r24, 0x00C2
 2f8:	60 2f       	mov	r22, r16
 2fa:	fd d1       	rcall	.+1018   	; 0x6f6 <__udivmodqi4>
 2fc:	99 23       	and	r25, r25
 2fe:	19 f4       	brne	.+6      	; 0x306 <main+0x98>
			if ( memory_state[0] == STATE_RUNNING ) {
 300:	80 91 bc 00 	lds	r24, 0x00BC
				// lcd_refresh();
				lcd_debug();
			} else {
				// lcd_welcome();
				lcd_debug();
 304:	2c df       	rcall	.-424    	; 0x15e <lcd_debug>
			}
		}
		if ( (refresh_flag % USART_REFRESH_TICK) == 0 ) {
 306:	80 91 c2 00 	lds	r24, 0x00C2
			// USART_send_report();
		}
		if (refresh_flag==255) {
 30a:	80 91 c2 00 	lds	r24, 0x00C2
 30e:	8f 3f       	cpi	r24, 0xFF	; 255
 310:	29 f6       	brne	.-118    	; 0x29c <main+0x2e>
			refresh_flag = 0;
 312:	10 92 c2 00 	sts	0x00C2, r1
 316:	c2 cf       	rjmp	.-124    	; 0x29c <main+0x2e>

00000318 <lcd_refresh>:

/*
 * Refresh LCD display
 */
void lcd_refresh(void) {
	lcd_cls();
 318:	17 d1       	rcall	.+558    	; 0x548 <lcd_cls>

	// SENSor
	lcd_locate(0,0);
 31a:	80 e0       	ldi	r24, 0x00	; 0
 31c:	60 e0       	ldi	r22, 0x00	; 0
 31e:	0d d1       	rcall	.+538    	; 0x53a <lcd_locate>
	lcd_str("SENS");
 320:	8e e7       	ldi	r24, 0x7E	; 126
 322:	90 e0       	ldi	r25, 0x00	; 0
 324:	cb d0       	rcall	.+406    	; 0x4bc <lcd_str>
	lcd_locate(0,4);
 326:	80 e0       	ldi	r24, 0x00	; 0
 328:	64 e0       	ldi	r22, 0x04	; 4
 32a:	07 d1       	rcall	.+526    	; 0x53a <lcd_locate>
	if (btn_state[0] == BTN_ON) {
 32c:	80 91 b6 00 	lds	r24, 0x00B6
 330:	81 30       	cpi	r24, 0x01	; 1
 332:	19 f4       	brne	.+6      	; 0x33a <lcd_refresh+0x22>
		lcd_str("C");
 334:	83 e8       	ldi	r24, 0x83	; 131
 336:	90 e0       	ldi	r25, 0x00	; 0
 338:	09 c0       	rjmp	.+18     	; 0x34c <lcd_refresh+0x34>
	} else if (btn_state[1] == BTN_ON) {
 33a:	80 91 b7 00 	lds	r24, 0x00B7
 33e:	81 30       	cpi	r24, 0x01	; 1
 340:	19 f4       	brne	.+6      	; 0x348 <lcd_refresh+0x30>
		lcd_str("L");
 342:	85 e8       	ldi	r24, 0x85	; 133
 344:	90 e0       	ldi	r25, 0x00	; 0
 346:	02 c0       	rjmp	.+4      	; 0x34c <lcd_refresh+0x34>
	} else {
		lcd_str(" ");
 348:	87 e8       	ldi	r24, 0x87	; 135
 34a:	90 e0       	ldi	r25, 0x00	; 0
 34c:	b7 d0       	rcall	.+366    	; 0x4bc <lcd_str>
	}

	// MODE
	lcd_locate(0,6);
 34e:	80 e0       	ldi	r24, 0x00	; 0
 350:	66 e0       	ldi	r22, 0x06	; 6
 352:	f3 d0       	rcall	.+486    	; 0x53a <lcd_locate>
	lcd_str("MODE");
 354:	89 e8       	ldi	r24, 0x89	; 137
 356:	90 e0       	ldi	r25, 0x00	; 0
 358:	b1 d0       	rcall	.+354    	; 0x4bc <lcd_str>
	lcd_locate(0,10);
 35a:	80 e0       	ldi	r24, 0x00	; 0
 35c:	6a e0       	ldi	r22, 0x0A	; 10
 35e:	ed d0       	rcall	.+474    	; 0x53a <lcd_locate>
	lcd_int(memory_state[1]); // current mode
 360:	80 91 bd 00 	lds	r24, 0x00BD
 364:	90 e0       	ldi	r25, 0x00	; 0
 366:	ba d0       	rcall	.+372    	; 0x4dc <lcd_int>
	// CouRse number
	lcd_locate(1,0);
 368:	81 e0       	ldi	r24, 0x01	; 1
 36a:	60 e0       	ldi	r22, 0x00	; 0
 36c:	e6 d0       	rcall	.+460    	; 0x53a <lcd_locate>
	lcd_str("IT");
 36e:	8e e8       	ldi	r24, 0x8E	; 142
 370:	90 e0       	ldi	r25, 0x00	; 0
 372:	a4 d0       	rcall	.+328    	; 0x4bc <lcd_str>
	lcd_locate(1,2);
 374:	81 e0       	ldi	r24, 0x01	; 1
 376:	62 e0       	ldi	r22, 0x02	; 2
 378:	e0 d0       	rcall	.+448    	; 0x53a <lcd_locate>
	lcd_int(memory_state[3]); // number of courses
 37a:	80 91 bf 00 	lds	r24, 0x00BF
 37e:	90 e0       	ldi	r25, 0x00	; 0
 380:	ad d0       	rcall	.+346    	; 0x4dc <lcd_int>
	// DiSTance
	lcd_locate(1,6);
 382:	81 e0       	ldi	r24, 0x01	; 1
 384:	66 e0       	ldi	r22, 0x06	; 6
 386:	d9 d0       	rcall	.+434    	; 0x53a <lcd_locate>
	lcd_str("LN");
 388:	81 e9       	ldi	r24, 0x91	; 145
 38a:	90 e0       	ldi	r25, 0x00	; 0
 38c:	97 d0       	rcall	.+302    	; 0x4bc <lcd_str>
	lcd_locate(1,8);
 38e:	81 e0       	ldi	r24, 0x01	; 1
 390:	68 e0       	ldi	r22, 0x08	; 8
 392:	d3 d0       	rcall	.+422    	; 0x53a <lcd_locate>
	lcd_int(memory_state[4]); // total distance in meters
 394:	80 91 c0 00 	lds	r24, 0x00C0
 398:	90 e0       	ldi	r25, 0x00	; 0
 39a:	a0 d0       	rcall	.+320    	; 0x4dc <lcd_int>
	// SPD
	lcd_locate(0,13);
 39c:	80 e0       	ldi	r24, 0x00	; 0
 39e:	6d e0       	ldi	r22, 0x0D	; 13
 3a0:	cc d0       	rcall	.+408    	; 0x53a <lcd_locate>
	lcd_str("SPD");
 3a2:	84 e9       	ldi	r24, 0x94	; 148
 3a4:	90 e0       	ldi	r25, 0x00	; 0
 3a6:	8a d0       	rcall	.+276    	; 0x4bc <lcd_str>
	lcd_locate(1,13);
 3a8:	81 e0       	ldi	r24, 0x01	; 1
 3aa:	6d e0       	ldi	r22, 0x0D	; 13
 3ac:	c6 d0       	rcall	.+396    	; 0x53a <lcd_locate>
	lcd_int(memory_state[5]); // 8bit value
 3ae:	80 91 c1 00 	lds	r24, 0x00C1
 3b2:	90 e0       	ldi	r25, 0x00	; 0
 3b4:	93 d0       	rcall	.+294    	; 0x4dc <lcd_int>
	// separators
	lcd_locate(0,5);
 3b6:	80 e0       	ldi	r24, 0x00	; 0
 3b8:	65 e0       	ldi	r22, 0x05	; 5
 3ba:	bf d0       	rcall	.+382    	; 0x53a <lcd_locate>
	lcd_str("\x80");
 3bc:	88 e9       	ldi	r24, 0x98	; 152
 3be:	90 e0       	ldi	r25, 0x00	; 0
 3c0:	7d d0       	rcall	.+250    	; 0x4bc <lcd_str>
	lcd_locate(0,11);
 3c2:	80 e0       	ldi	r24, 0x00	; 0
 3c4:	6b e0       	ldi	r22, 0x0B	; 11
 3c6:	b9 d0       	rcall	.+370    	; 0x53a <lcd_locate>
	lcd_str("\x80");
 3c8:	88 e9       	ldi	r24, 0x98	; 152
 3ca:	90 e0       	ldi	r25, 0x00	; 0
 3cc:	77 d0       	rcall	.+238    	; 0x4bc <lcd_str>
	lcd_locate(1,5);
 3ce:	81 e0       	ldi	r24, 0x01	; 1
 3d0:	65 e0       	ldi	r22, 0x05	; 5
 3d2:	b3 d0       	rcall	.+358    	; 0x53a <lcd_locate>
	lcd_str("\x80");
 3d4:	88 e9       	ldi	r24, 0x98	; 152
 3d6:	90 e0       	ldi	r25, 0x00	; 0
 3d8:	71 d0       	rcall	.+226    	; 0x4bc <lcd_str>
	lcd_locate(1,11);
 3da:	81 e0       	ldi	r24, 0x01	; 1
 3dc:	6b e0       	ldi	r22, 0x0B	; 11
 3de:	ad d0       	rcall	.+346    	; 0x53a <lcd_locate>
	lcd_str("\x80");
 3e0:	88 e9       	ldi	r24, 0x98	; 152
 3e2:	90 e0       	ldi	r25, 0x00	; 0
 3e4:	6b d0       	rcall	.+214    	; 0x4bc <lcd_str>
	// two empty fields
	lcd_locate(0,12);
 3e6:	80 e0       	ldi	r24, 0x00	; 0
 3e8:	6c e0       	ldi	r22, 0x0C	; 12
 3ea:	a7 d0       	rcall	.+334    	; 0x53a <lcd_locate>
	lcd_str(" ");
 3ec:	87 e8       	ldi	r24, 0x87	; 135
 3ee:	90 e0       	ldi	r25, 0x00	; 0
 3f0:	65 d0       	rcall	.+202    	; 0x4bc <lcd_str>
	lcd_locate(1,12);
 3f2:	81 e0       	ldi	r24, 0x01	; 1
 3f4:	6c e0       	ldi	r22, 0x0C	; 12
 3f6:	a1 d0       	rcall	.+322    	; 0x53a <lcd_locate>
	lcd_str(" ");
 3f8:	87 e8       	ldi	r24, 0x87	; 135
 3fa:	90 e0       	ldi	r25, 0x00	; 0
 3fc:	5f d0       	rcall	.+190    	; 0x4bc <lcd_str>
}
 3fe:	08 95       	ret

00000400 <USART_send_report>:

/*
 * Send drive states report on RS232
 */
void USART_send_report(void) {
	USART_string("\r\n#### Report ####");
 400:	8a e9       	ldi	r24, 0x9A	; 154
 402:	90 e0       	ldi	r25, 0x00	; 0
 404:	f0 d0       	rcall	.+480    	; 0x5e6 <USART_string>
 406:	08 95       	ret

00000408 <data_dir_out>:
//		 Ustawienie wszystkich 4 linii danych jako WYjœcia
//
//----------------------------------------------------------------------------------------
static inline void data_dir_out(void)
{
	DDR(LCD_D7PORT)	|= (1<<LCD_D7);
 408:	8f 9a       	sbi	0x11, 7	; 17
	DDR(LCD_D6PORT)	|= (1<<LCD_D6);
 40a:	8e 9a       	sbi	0x11, 6	; 17
	DDR(LCD_D5PORT)	|= (1<<LCD_D5);
 40c:	8d 9a       	sbi	0x11, 5	; 17
	DDR(LCD_D4PORT)	|= (1<<LCD_D4);
 40e:	bf 9a       	sbi	0x17, 7	; 23
}
 410:	08 95       	ret

00000412 <lcd_sendHalf>:
//		 Wys³anie po³ówki bajtu do LCD (D4..D7)
//
//----------------------------------------------------------------------------------------
static inline void lcd_sendHalf(uint8_t data)
{
	if (data&(1<<0)) PORT(LCD_D4PORT) |= (1<<LCD_D4); else PORT(LCD_D4PORT) &= ~(1<<LCD_D4);
 412:	80 ff       	sbrs	r24, 0
 414:	02 c0       	rjmp	.+4      	; 0x41a <lcd_sendHalf+0x8>
 416:	c7 9a       	sbi	0x18, 7	; 24
 418:	01 c0       	rjmp	.+2      	; 0x41c <lcd_sendHalf+0xa>
 41a:	c7 98       	cbi	0x18, 7	; 24
	if (data&(1<<1)) PORT(LCD_D5PORT) |= (1<<LCD_D5); else PORT(LCD_D5PORT) &= ~(1<<LCD_D5);
 41c:	81 ff       	sbrs	r24, 1
 41e:	02 c0       	rjmp	.+4      	; 0x424 <lcd_sendHalf+0x12>
 420:	95 9a       	sbi	0x12, 5	; 18
 422:	01 c0       	rjmp	.+2      	; 0x426 <lcd_sendHalf+0x14>
 424:	95 98       	cbi	0x12, 5	; 18
	if (data&(1<<2)) PORT(LCD_D6PORT) |= (1<<LCD_D6); else PORT(LCD_D6PORT) &= ~(1<<LCD_D6);
 426:	82 ff       	sbrs	r24, 2
 428:	02 c0       	rjmp	.+4      	; 0x42e <lcd_sendHalf+0x1c>
 42a:	96 9a       	sbi	0x12, 6	; 18
 42c:	01 c0       	rjmp	.+2      	; 0x430 <lcd_sendHalf+0x1e>
 42e:	96 98       	cbi	0x12, 6	; 18
	if (data&(1<<3)) PORT(LCD_D7PORT) |= (1<<LCD_D7); else PORT(LCD_D7PORT) &= ~(1<<LCD_D7);
 430:	83 ff       	sbrs	r24, 3
 432:	02 c0       	rjmp	.+4      	; 0x438 <lcd_sendHalf+0x26>
 434:	97 9a       	sbi	0x12, 7	; 18
 436:	08 95       	ret
 438:	97 98       	cbi	0x12, 7	; 18
 43a:	08 95       	ret

0000043c <lcd_readHalf>:
//----------------------------------------------------------------------------------------
static inline uint8_t lcd_readHalf(void)
{
	uint8_t result=0;

	if(PIN(LCD_D4PORT)&(1<<LCD_D4)) result |= (1<<0);
 43c:	86 b3       	in	r24, 0x16	; 22
//		 Odczyt po³ówki bajtu z LCD (D4..D7)
//
//----------------------------------------------------------------------------------------
static inline uint8_t lcd_readHalf(void)
{
	uint8_t result=0;
 43e:	88 1f       	adc	r24, r24
 440:	88 27       	eor	r24, r24
 442:	88 1f       	adc	r24, r24

	if(PIN(LCD_D4PORT)&(1<<LCD_D4)) result |= (1<<0);
	if(PIN(LCD_D5PORT)&(1<<LCD_D5)) result |= (1<<1);
 444:	85 99       	sbic	0x10, 5	; 16
 446:	82 60       	ori	r24, 0x02	; 2
	if(PIN(LCD_D6PORT)&(1<<LCD_D6)) result |= (1<<2);
 448:	86 99       	sbic	0x10, 6	; 16
 44a:	84 60       	ori	r24, 0x04	; 4
	if(PIN(LCD_D7PORT)&(1<<LCD_D7)) result |= (1<<3);
 44c:	87 99       	sbic	0x10, 7	; 16
 44e:	88 60       	ori	r24, 0x08	; 8

	return result;
}
 450:	08 95       	ret

00000452 <_lcd_read_byte>:
//
//		 Odczyt bajtu z wyœwietlacza LCD
//
//----------------------------------------------------------------------------------------
uint8_t _lcd_read_byte(void)
{
 452:	1f 93       	push	r17
//		 Ustawienie wszystkich 4 linii danych jako WEjœcia
//
//----------------------------------------------------------------------------------------
static inline void data_dir_in(void)
{
	DDR(LCD_D7PORT)	&= ~(1<<LCD_D7);
 454:	8f 98       	cbi	0x11, 7	; 17
	DDR(LCD_D6PORT)	&= ~(1<<LCD_D6);
 456:	8e 98       	cbi	0x11, 6	; 17
	DDR(LCD_D5PORT)	&= ~(1<<LCD_D5);
 458:	8d 98       	cbi	0x11, 5	; 17
	DDR(LCD_D4PORT)	&= ~(1<<LCD_D4);
 45a:	bf 98       	cbi	0x17, 7	; 23
uint8_t _lcd_read_byte(void)
{
	uint8_t result=0;
	data_dir_in();

	SET_RW;
 45c:	93 9a       	sbi	0x12, 3	; 18

	SET_E;
 45e:	94 9a       	sbi	0x12, 4	; 18
	result = (lcd_readHalf() << 4);	// odczyt starszej czêœci bajtu z LCD D7..D4
 460:	ed df       	rcall	.-38     	; 0x43c <lcd_readHalf>
 462:	18 2f       	mov	r17, r24
 464:	12 95       	swap	r17
 466:	10 7f       	andi	r17, 0xF0	; 240
	CLR_E;
 468:	94 98       	cbi	0x12, 4	; 18

	SET_E;
 46a:	94 9a       	sbi	0x12, 4	; 18
	result |= lcd_readHalf();			// odczyt m³odszej czêœci bajtu z LCD D3..D0
 46c:	e7 df       	rcall	.-50     	; 0x43c <lcd_readHalf>
	CLR_E;
 46e:	94 98       	cbi	0x12, 4	; 18

	return result;
}
 470:	81 2b       	or	r24, r17
 472:	1f 91       	pop	r17
 474:	08 95       	ret

00000476 <check_BF>:
//		 Sprawdzenie stanu Busy Flag (Zajêtoœci wyœwietlacza)
//
//----------------------------------------------------------------------------------------
uint8_t check_BF(void)
{
	CLR_RS;
 476:	92 98       	cbi	0x12, 2	; 18
	return _lcd_read_byte();
 478:	ec df       	rcall	.-40     	; 0x452 <_lcd_read_byte>
}
 47a:	08 95       	ret

0000047c <_lcd_write_byte>:
//
//		 Zapis bajtu do wyœwietlacza LCD
//
//----------------------------------------------------------------------------------------
void _lcd_write_byte(unsigned char _data)
{
 47c:	1f 93       	push	r17
 47e:	18 2f       	mov	r17, r24
	// Ustawienie pinów portu LCD D4..D7 jako wyjœcia
	data_dir_out();
 480:	c3 df       	rcall	.-122    	; 0x408 <data_dir_out>

#if USE_RW == 1
	CLR_RW;
 482:	93 98       	cbi	0x12, 3	; 18
#endif

	SET_E;
 484:	94 9a       	sbi	0x12, 4	; 18
	lcd_sendHalf(_data >> 4);			// wys³anie starszej czêœci bajtu danych D7..D4
 486:	81 2f       	mov	r24, r17
 488:	82 95       	swap	r24
 48a:	8f 70       	andi	r24, 0x0F	; 15
 48c:	c2 df       	rcall	.-124    	; 0x412 <lcd_sendHalf>
	CLR_E;
 48e:	94 98       	cbi	0x12, 4	; 18

	SET_E;
 490:	94 9a       	sbi	0x12, 4	; 18
	lcd_sendHalf(_data);				// wys³anie m³odszej czêœci bajtu danych D3..D0
 492:	81 2f       	mov	r24, r17
 494:	be df       	rcall	.-132    	; 0x412 <lcd_sendHalf>
	CLR_E;
 496:	94 98       	cbi	0x12, 4	; 18

#if USE_RW == 1
	while( (check_BF() & (1<<7)) );
 498:	ee df       	rcall	.-36     	; 0x476 <check_BF>
 49a:	87 fd       	sbrc	r24, 7
 49c:	fd cf       	rjmp	.-6      	; 0x498 <_lcd_write_byte+0x1c>
#else
	_delay_us(120);
#endif

}
 49e:	1f 91       	pop	r17
 4a0:	08 95       	ret

000004a2 <lcd_write_cmd>:
//		 Zapis komendy do wyœwietlacza LCD
//
//----------------------------------------------------------------------------------------
void lcd_write_cmd(uint8_t cmd)
{
	CLR_RS;
 4a2:	92 98       	cbi	0x12, 2	; 18
	_lcd_write_byte(cmd);
 4a4:	eb df       	rcall	.-42     	; 0x47c <_lcd_write_byte>
}
 4a6:	08 95       	ret

000004a8 <lcd_write_data>:
//		 Zapis danych do wyœwietlacza LCD
//
//----------------------------------------------------------------------------------------
void lcd_write_data(uint8_t data)
{
	SET_RS;
 4a8:	92 9a       	sbi	0x12, 2	; 18
	_lcd_write_byte(data);
 4aa:	e8 df       	rcall	.-48     	; 0x47c <_lcd_write_byte>
}
 4ac:	08 95       	ret

000004ae <lcd_char>:
//		 wysy³amy za pomoc¹ kodów 0x80 do 0x87 zamiast 0x00 do 0x07
//
//----------------------------------------------------------------------------------------
void lcd_char(char c)
{
	lcd_write_data( ( c>=0x80 && c<=0x87 ) ? (c & 0x07) : c);
 4ae:	98 2f       	mov	r25, r24
 4b0:	90 58       	subi	r25, 0x80	; 128
 4b2:	98 30       	cpi	r25, 0x08	; 8
 4b4:	08 f4       	brcc	.+2      	; 0x4b8 <lcd_char+0xa>
 4b6:	87 70       	andi	r24, 0x07	; 7
 4b8:	f7 df       	rcall	.-18     	; 0x4a8 <lcd_write_data>
}
 4ba:	08 95       	ret

000004bc <lcd_str>:
//		 8 w³asnych znaków zdefiniowanych w CGRAM
//		 wysy³amy za pomoc¹ kodów 0x80 do 0x87 zamiast 0x00 do 0x07
//
//----------------------------------------------------------------------------------------
void lcd_str(char * str)
{
 4bc:	cf 93       	push	r28
 4be:	df 93       	push	r29
 4c0:	ec 01       	movw	r28, r24
	register char znak;
	while ( (znak=*(str++)) )
 4c2:	06 c0       	rjmp	.+12     	; 0x4d0 <lcd_str+0x14>
		lcd_write_data( ( znak>=0x80 && znak<=0x87 ) ? (znak & 0x07) : znak);
 4c4:	98 2f       	mov	r25, r24
 4c6:	90 58       	subi	r25, 0x80	; 128
 4c8:	98 30       	cpi	r25, 0x08	; 8
 4ca:	08 f4       	brcc	.+2      	; 0x4ce <lcd_str+0x12>
 4cc:	87 70       	andi	r24, 0x07	; 7
 4ce:	ec df       	rcall	.-40     	; 0x4a8 <lcd_write_data>
//
//----------------------------------------------------------------------------------------
void lcd_str(char * str)
{
	register char znak;
	while ( (znak=*(str++)) )
 4d0:	89 91       	ld	r24, Y+
 4d2:	88 23       	and	r24, r24
 4d4:	b9 f7       	brne	.-18     	; 0x4c4 <lcd_str+0x8>
		lcd_write_data( ( znak>=0x80 && znak<=0x87 ) ? (znak & 0x07) : znak);
}
 4d6:	df 91       	pop	r29
 4d8:	cf 91       	pop	r28
 4da:	08 95       	ret

000004dc <lcd_int>:
//
//		 Wyœwietla liczbê dziesiêtn¹ na wyœwietlaczu LCD
//
//----------------------------------------------------------------------------------------
void lcd_int(int val)
{
 4dc:	df 93       	push	r29
 4de:	cf 93       	push	r28
 4e0:	cd b7       	in	r28, 0x3d	; 61
 4e2:	de b7       	in	r29, 0x3e	; 62
 4e4:	61 97       	sbiw	r28, 0x11	; 17
 4e6:	0f b6       	in	r0, 0x3f	; 63
 4e8:	f8 94       	cli
 4ea:	de bf       	out	0x3e, r29	; 62
 4ec:	0f be       	out	0x3f, r0	; 63
 4ee:	cd bf       	out	0x3d, r28	; 61
	char bufor[17];
	lcd_str( itoa(val, bufor, 10) );
 4f0:	be 01       	movw	r22, r28
 4f2:	6f 5f       	subi	r22, 0xFF	; 255
 4f4:	7f 4f       	sbci	r23, 0xFF	; 255
 4f6:	4a e0       	ldi	r20, 0x0A	; 10
 4f8:	50 e0       	ldi	r21, 0x00	; 0
 4fa:	09 d1       	rcall	.+530    	; 0x70e <itoa>
 4fc:	df df       	rcall	.-66     	; 0x4bc <lcd_str>
}
 4fe:	61 96       	adiw	r28, 0x11	; 17
 500:	0f b6       	in	r0, 0x3f	; 63
 502:	f8 94       	cli
 504:	de bf       	out	0x3e, r29	; 62
 506:	0f be       	out	0x3f, r0	; 63
 508:	cd bf       	out	0x3d, r28	; 61
 50a:	cf 91       	pop	r28
 50c:	df 91       	pop	r29
 50e:	08 95       	ret

00000510 <lcd_defchar>:
//		nr: 		- kod znaku w pamiêci CGRAM od 0x80 do 0x87
//		*def_znak:	- wskaŸnik do tablicy 7 bajtów definiuj¹cych znak
//
//----------------------------------------------------------------------------------------
void lcd_defchar(uint8_t nr, uint8_t *def_znak)
{
 510:	1f 93       	push	r17
 512:	cf 93       	push	r28
 514:	df 93       	push	r29
 516:	eb 01       	movw	r28, r22
	register uint8_t i,c;
	lcd_write_cmd( 64+((nr&0x07)*8) );
 518:	90 e0       	ldi	r25, 0x00	; 0
 51a:	87 70       	andi	r24, 0x07	; 7
 51c:	90 70       	andi	r25, 0x00	; 0
 51e:	08 96       	adiw	r24, 0x08	; 8
 520:	88 0f       	add	r24, r24
 522:	88 0f       	add	r24, r24
 524:	88 0f       	add	r24, r24
 526:	bd df       	rcall	.-134    	; 0x4a2 <lcd_write_cmd>
 528:	18 e0       	ldi	r17, 0x08	; 8
	for(i=0;i<8;i++)
	{
		c = *(def_znak++);
		lcd_write_data(c);
 52a:	89 91       	ld	r24, Y+
 52c:	bd df       	rcall	.-134    	; 0x4a8 <lcd_write_data>
 52e:	11 50       	subi	r17, 0x01	; 1
//----------------------------------------------------------------------------------------
void lcd_defchar(uint8_t nr, uint8_t *def_znak)
{
	register uint8_t i,c;
	lcd_write_cmd( 64+((nr&0x07)*8) );
	for(i=0;i<8;i++)
 530:	e1 f7       	brne	.-8      	; 0x52a <lcd_defchar+0x1a>
	{
		c = *(def_znak++);
		lcd_write_data(c);
	}
}
 532:	df 91       	pop	r29
 534:	cf 91       	pop	r28
 536:	1f 91       	pop	r17
 538:	08 95       	ret

0000053a <lcd_locate>:
//		w zale¿noœci od rodzaju wyœwietlacza (ile posiada wierszy)
//
//----------------------------------------------------------------------------------------
void lcd_locate(uint8_t y, uint8_t x)
{
	switch(y)
 53a:	81 30       	cpi	r24, 0x01	; 1
 53c:	09 f4       	brne	.+2      	; 0x540 <lcd_locate+0x6>
	{
		case 0: y = LCD_LINE1; break;

#if (LCD_Y>1)
	    case 1: y = LCD_LINE2; break; // adres 1 znaku 2 wiersza
 53e:	80 e4       	ldi	r24, 0x40	; 64
#if (LCD_Y>3)
    	case 3: y = LCD_LINE4; break; // adres 1 znaku 4 wiersza
#endif
	}

	lcd_write_cmd( (0x80 + y + x) );
 540:	60 58       	subi	r22, 0x80	; 128
 542:	86 0f       	add	r24, r22
 544:	ae df       	rcall	.-164    	; 0x4a2 <lcd_write_cmd>
}
 546:	08 95       	ret

00000548 <lcd_cls>:
//		Kasowanie ekranu wyœwietlacza
//
//----------------------------------------------------------------------------------------
void lcd_cls(void)
{
	lcd_write_cmd( LCDC_CLS );
 548:	81 e0       	ldi	r24, 0x01	; 1
 54a:	ab df       	rcall	.-170    	; 0x4a2 <lcd_write_cmd>

	#if USE_RW == 0
		_delay_ms(4.9);
	#endif
}
 54c:	08 95       	ret

0000054e <lcd_init>:
//----------------------------------------------------------------------------------------
void lcd_init(void)
{
	// inicjowanie pinów portów ustalonych do pod³¹czenia z wyœwietlaczem LCD
	// ustawienie wszystkich jako wyjœcia
	data_dir_out();
 54e:	5c df       	rcall	.-328    	; 0x408 <data_dir_out>
	DDR(LCD_RSPORT) |= (1<<LCD_RS);
 550:	8a 9a       	sbi	0x11, 2	; 17
	DDR(LCD_EPORT) |= (1<<LCD_E);
 552:	8c 9a       	sbi	0x11, 4	; 17
	#if USE_RW == 1
		DDR(LCD_RWPORT) |= (1<<LCD_RW);
 554:	8b 9a       	sbi	0x11, 3	; 17
	#endif

	// wyzerowanie wszystkich linii steruj¹cych
	PORT(LCD_RSPORT) &= ~(1<<LCD_RS);
 556:	92 98       	cbi	0x12, 2	; 18
	PORT(LCD_EPORT) &= ~(1<<LCD_E);
 558:	94 98       	cbi	0x12, 4	; 18
	#if USE_RW == 1
		PORT(LCD_RWPORT) &= ~(1<<LCD_RW);
 55a:	93 98       	cbi	0x12, 3	; 18
	#else
		//round up by default
		__ticks_dc = (uint32_t)(ceil(fabs(__tmp)));
	#endif

	__builtin_avr_delay_cycles(__ticks_dc);
 55c:	8f e2       	ldi	r24, 0x2F	; 47
 55e:	95 e7       	ldi	r25, 0x75	; 117
 560:	01 97       	sbiw	r24, 0x01	; 1
 562:	f1 f7       	brne	.-4      	; 0x560 <lcd_init+0x12>
 564:	00 c0       	rjmp	.+0      	; 0x566 <lcd_init+0x18>
 566:	00 00       	nop
	#endif

	_delay_ms(15);
	PORT(LCD_RSPORT) &= ~(1<<LCD_RS);
 568:	92 98       	cbi	0x12, 2	; 18
	PORT(LCD_RWPORT) &= ~(1<<LCD_RW);
 56a:	93 98       	cbi	0x12, 3	; 18

	// jeszcze nie mo¿na u¿ywaæ Busy Flag
	lcd_sendHalf(LCDC_FUNC|LCDC_FUNC8B);
 56c:	80 e3       	ldi	r24, 0x30	; 48
 56e:	51 df       	rcall	.-350    	; 0x412 <lcd_sendHalf>
 570:	87 e0       	ldi	r24, 0x07	; 7
 572:	90 e2       	ldi	r25, 0x20	; 32
 574:	01 97       	sbiw	r24, 0x01	; 1
 576:	f1 f7       	brne	.-4      	; 0x574 <lcd_init+0x26>
 578:	00 c0       	rjmp	.+0      	; 0x57a <lcd_init+0x2c>
 57a:	00 00       	nop
	_delay_ms(4.1);
	lcd_sendHalf(LCDC_FUNC|LCDC_FUNC8B);
 57c:	80 e3       	ldi	r24, 0x30	; 48
 57e:	49 df       	rcall	.-366    	; 0x412 <lcd_sendHalf>
	#else
		//round up by default
		__ticks_dc = (uint32_t)(ceil(fabs(__tmp)));
	#endif

	__builtin_avr_delay_cycles(__ticks_dc);
 580:	87 ec       	ldi	r24, 0xC7	; 199
 582:	90 e0       	ldi	r25, 0x00	; 0
 584:	01 97       	sbiw	r24, 0x01	; 1
 586:	f1 f7       	brne	.-4      	; 0x584 <lcd_init+0x36>
 588:	00 c0       	rjmp	.+0      	; 0x58a <lcd_init+0x3c>
 58a:	00 00       	nop
	_delay_us(100);
	lcd_sendHalf(LCDC_FUNC|LCDC_FUNC4B);
 58c:	80 e2       	ldi	r24, 0x20	; 32
 58e:	41 df       	rcall	.-382    	; 0x412 <lcd_sendHalf>
 590:	87 ec       	ldi	r24, 0xC7	; 199
 592:	90 e0       	ldi	r25, 0x00	; 0
 594:	01 97       	sbiw	r24, 0x01	; 1
 596:	f1 f7       	brne	.-4      	; 0x594 <lcd_init+0x46>
 598:	00 c0       	rjmp	.+0      	; 0x59a <lcd_init+0x4c>
 59a:	00 00       	nop
	_delay_us(100);

	// ju¿ mo¿na u¿ywaæ Busy Flag
	// tryb 4-bitowy, 2 wiersze, znak 5x7
	lcd_write_cmd( LCDC_FUNC|LCDC_FUNC4B|LCDC_FUNC2L|LCDC_FUNC5x7 );
 59c:	88 e2       	ldi	r24, 0x28	; 40
 59e:	81 df       	rcall	.-254    	; 0x4a2 <lcd_write_cmd>
	// wy³¹czenie kursora
	lcd_write_cmd( LCDC_ONOFF|LCDC_CURSOROFF );
 5a0:	88 e0       	ldi	r24, 0x08	; 8
 5a2:	7f df       	rcall	.-258    	; 0x4a2 <lcd_write_cmd>
	// w³¹czenie wyœwietlacza
	lcd_write_cmd( LCDC_ONOFF|LCDC_DISPLAYON );
 5a4:	8c e0       	ldi	r24, 0x0C	; 12
 5a6:	7d df       	rcall	.-262    	; 0x4a2 <lcd_write_cmd>
	// przesuwanie kursora w prawo bez przesuwania zawartoœci ekranu
	lcd_write_cmd( LCDC_ENTRY|LCDC_ENTRYR );
 5a8:	86 e0       	ldi	r24, 0x06	; 6
 5aa:	7b df       	rcall	.-266    	; 0x4a2 <lcd_write_cmd>

	// kasowanie ekranu
	lcd_cls();
 5ac:	cd df       	rcall	.-102    	; 0x548 <lcd_cls>
}
 5ae:	08 95       	ret

000005b0 <USART_init>:
volatile char UART_TxBuf[UART_TX_BUF_SIZE];
volatile uint8_t UART_TxHead;
volatile uint8_t UART_TxTail;

void USART_init(uint16_t baud) {
	UBRRH = (uint8_t)(baud>>8);
 5b0:	90 bd       	out	0x20, r25	; 32
	UBRRL = (uint8_t)baud;
 5b2:	89 b9       	out	0x09, r24	; 9
	UCSRB |= (1<<RXEN)|(1<<TXEN);
 5b4:	8a b1       	in	r24, 0x0a	; 10
 5b6:	88 61       	ori	r24, 0x18	; 24
 5b8:	8a b9       	out	0x0a, r24	; 10
	UCSRC |= (1<<URSEL)|(3<<UCSZ0);			// 8bit, 1bit stop
 5ba:	80 b5       	in	r24, 0x20	; 32
 5bc:	86 68       	ori	r24, 0x86	; 134
 5be:	80 bd       	out	0x20, r24	; 32
	UCSRB |= (1<<RXCIE);					// IRQ
 5c0:	57 9a       	sbi	0x0a, 7	; 10
}
 5c2:	08 95       	ret

000005c4 <USART_char>:

void USART_char(char data) {
	uint8_t tmp_head;
    tmp_head  = (UART_TxHead + 1) & UART_TX_BUF_MASK;
 5c4:	90 91 c4 00 	lds	r25, 0x00C4
 5c8:	9f 5f       	subi	r25, 0xFF	; 255
 5ca:	9f 70       	andi	r25, 0x0F	; 15
    while ( tmp_head == UART_TxTail ){}
 5cc:	20 91 c5 00 	lds	r18, 0x00C5
 5d0:	92 17       	cp	r25, r18
 5d2:	e1 f3       	breq	.-8      	; 0x5cc <USART_char+0x8>
    UART_TxBuf[tmp_head] = data;
 5d4:	e9 2f       	mov	r30, r25
 5d6:	f0 e0       	ldi	r31, 0x00	; 0
 5d8:	ea 53       	subi	r30, 0x3A	; 58
 5da:	ff 4f       	sbci	r31, 0xFF	; 255
 5dc:	80 83       	st	Z, r24
    UART_TxHead = tmp_head;
 5de:	90 93 c4 00 	sts	0x00C4, r25
    UCSRB |= (1<<UDRIE);
 5e2:	55 9a       	sbi	0x0a, 5	; 10
}
 5e4:	08 95       	ret

000005e6 <USART_string>:

void USART_string(char *s) {
 5e6:	cf 93       	push	r28
 5e8:	df 93       	push	r29
 5ea:	ec 01       	movw	r28, r24
	register char c;
	while ((c = *s++)) USART_char(c);
 5ec:	01 c0       	rjmp	.+2      	; 0x5f0 <USART_string+0xa>
 5ee:	ea df       	rcall	.-44     	; 0x5c4 <USART_char>
 5f0:	89 91       	ld	r24, Y+
 5f2:	88 23       	and	r24, r24
 5f4:	e1 f7       	brne	.-8      	; 0x5ee <USART_string+0x8>
}
 5f6:	df 91       	pop	r29
 5f8:	cf 91       	pop	r28
 5fa:	08 95       	ret

000005fc <USART_int>:

void USART_int(int value) {
 5fc:	0f 93       	push	r16
 5fe:	1f 93       	push	r17
 600:	df 93       	push	r29
 602:	cf 93       	push	r28
 604:	cd b7       	in	r28, 0x3d	; 61
 606:	de b7       	in	r29, 0x3e	; 62
 608:	61 97       	sbiw	r28, 0x11	; 17
 60a:	0f b6       	in	r0, 0x3f	; 63
 60c:	f8 94       	cli
 60e:	de bf       	out	0x3e, r29	; 62
 610:	0f be       	out	0x3f, r0	; 63
 612:	cd bf       	out	0x3d, r28	; 61
	char string[17];
	itoa(value, string, 10);
 614:	8e 01       	movw	r16, r28
 616:	0f 5f       	subi	r16, 0xFF	; 255
 618:	1f 4f       	sbci	r17, 0xFF	; 255
 61a:	b8 01       	movw	r22, r16
 61c:	4a e0       	ldi	r20, 0x0A	; 10
 61e:	50 e0       	ldi	r21, 0x00	; 0
 620:	76 d0       	rcall	.+236    	; 0x70e <itoa>
	USART_string(string);
 622:	c8 01       	movw	r24, r16
 624:	e0 df       	rcall	.-64     	; 0x5e6 <USART_string>
}
 626:	61 96       	adiw	r28, 0x11	; 17
 628:	0f b6       	in	r0, 0x3f	; 63
 62a:	f8 94       	cli
 62c:	de bf       	out	0x3e, r29	; 62
 62e:	0f be       	out	0x3f, r0	; 63
 630:	cd bf       	out	0x3d, r28	; 61
 632:	cf 91       	pop	r28
 634:	df 91       	pop	r29
 636:	1f 91       	pop	r17
 638:	0f 91       	pop	r16
 63a:	08 95       	ret

0000063c <USART_get>:

char USART_get(void) {
    if ( UART_RxHead == UART_RxTail ) return 0;
 63c:	90 91 d6 00 	lds	r25, 0x00D6
 640:	80 91 d7 00 	lds	r24, 0x00D7
 644:	98 17       	cp	r25, r24
 646:	69 f0       	breq	.+26     	; 0x662 <USART_get+0x26>
    UART_RxTail = (UART_RxTail + 1) & UART_RX_BUF_MASK;
 648:	80 91 d7 00 	lds	r24, 0x00D7
 64c:	8f 5f       	subi	r24, 0xFF	; 255
 64e:	8f 71       	andi	r24, 0x1F	; 31
 650:	80 93 d7 00 	sts	0x00D7, r24
    return UART_RxBuf[UART_RxTail];
 654:	e0 91 d7 00 	lds	r30, 0x00D7
 658:	f0 e0       	ldi	r31, 0x00	; 0
 65a:	e8 52       	subi	r30, 0x28	; 40
 65c:	ff 4f       	sbci	r31, 0xFF	; 255
 65e:	80 81       	ld	r24, Z
 660:	08 95       	ret
	itoa(value, string, 10);
	USART_string(string);
}

char USART_get(void) {
    if ( UART_RxHead == UART_RxTail ) return 0;
 662:	80 e0       	ldi	r24, 0x00	; 0
    UART_RxTail = (UART_RxTail + 1) & UART_RX_BUF_MASK;
    return UART_RxBuf[UART_RxTail];
}
 664:	08 95       	ret

00000666 <__vector_11>:

ISR(USART_RXC_vect) {
 666:	1f 92       	push	r1
 668:	0f 92       	push	r0
 66a:	0f b6       	in	r0, 0x3f	; 63
 66c:	0f 92       	push	r0
 66e:	11 24       	eor	r1, r1
 670:	8f 93       	push	r24
 672:	9f 93       	push	r25
 674:	ef 93       	push	r30
 676:	ff 93       	push	r31
    uint8_t tmp_head;
    char data;
    data = UDR;
 678:	8c b1       	in	r24, 0x0c	; 12
    tmp_head = ( UART_RxHead + 1) & UART_RX_BUF_MASK;
 67a:	e0 91 d6 00 	lds	r30, 0x00D6
 67e:	ef 5f       	subi	r30, 0xFF	; 255
 680:	ef 71       	andi	r30, 0x1F	; 31
    if ( tmp_head == UART_RxTail ) {
 682:	90 91 d7 00 	lds	r25, 0x00D7
 686:	e9 17       	cp	r30, r25
 688:	31 f0       	breq	.+12     	; 0x696 <__vector_11+0x30>

    } else {
		UART_RxHead = tmp_head;
 68a:	e0 93 d6 00 	sts	0x00D6, r30
		UART_RxBuf[tmp_head] = data;
 68e:	f0 e0       	ldi	r31, 0x00	; 0
 690:	e8 52       	subi	r30, 0x28	; 40
 692:	ff 4f       	sbci	r31, 0xFF	; 255
 694:	80 83       	st	Z, r24
    }
}
 696:	ff 91       	pop	r31
 698:	ef 91       	pop	r30
 69a:	9f 91       	pop	r25
 69c:	8f 91       	pop	r24
 69e:	0f 90       	pop	r0
 6a0:	0f be       	out	0x3f, r0	; 63
 6a2:	0f 90       	pop	r0
 6a4:	1f 90       	pop	r1
 6a6:	18 95       	reti

000006a8 <__vector_12>:

ISR(USART_UDRE_vect)  {
 6a8:	1f 92       	push	r1
 6aa:	0f 92       	push	r0
 6ac:	0f b6       	in	r0, 0x3f	; 63
 6ae:	0f 92       	push	r0
 6b0:	11 24       	eor	r1, r1
 6b2:	8f 93       	push	r24
 6b4:	9f 93       	push	r25
 6b6:	ef 93       	push	r30
 6b8:	ff 93       	push	r31
    if ( UART_TxHead != UART_TxTail ) {
 6ba:	90 91 c4 00 	lds	r25, 0x00C4
 6be:	80 91 c5 00 	lds	r24, 0x00C5
 6c2:	98 17       	cp	r25, r24
 6c4:	71 f0       	breq	.+28     	; 0x6e2 <__vector_12+0x3a>
    	UART_TxTail = (UART_TxTail + 1) & UART_TX_BUF_MASK;
 6c6:	80 91 c5 00 	lds	r24, 0x00C5
 6ca:	8f 5f       	subi	r24, 0xFF	; 255
 6cc:	8f 70       	andi	r24, 0x0F	; 15
 6ce:	80 93 c5 00 	sts	0x00C5, r24
    	UDR = UART_TxBuf[UART_TxTail];
 6d2:	e0 91 c5 00 	lds	r30, 0x00C5
 6d6:	f0 e0       	ldi	r31, 0x00	; 0
 6d8:	ea 53       	subi	r30, 0x3A	; 58
 6da:	ff 4f       	sbci	r31, 0xFF	; 255
 6dc:	80 81       	ld	r24, Z
 6de:	8c b9       	out	0x0c, r24	; 12
 6e0:	01 c0       	rjmp	.+2      	; 0x6e4 <__vector_12+0x3c>
    } else {
		UCSRB &= ~(1<<UDRIE);
 6e2:	55 98       	cbi	0x0a, 5	; 10
    }
 6e4:	ff 91       	pop	r31
 6e6:	ef 91       	pop	r30
 6e8:	9f 91       	pop	r25
 6ea:	8f 91       	pop	r24
 6ec:	0f 90       	pop	r0
 6ee:	0f be       	out	0x3f, r0	; 63
 6f0:	0f 90       	pop	r0
 6f2:	1f 90       	pop	r1
 6f4:	18 95       	reti

000006f6 <__udivmodqi4>:
 6f6:	99 1b       	sub	r25, r25
 6f8:	79 e0       	ldi	r23, 0x09	; 9
 6fa:	04 c0       	rjmp	.+8      	; 0x704 <__udivmodqi4_ep>

000006fc <__udivmodqi4_loop>:
 6fc:	99 1f       	adc	r25, r25
 6fe:	96 17       	cp	r25, r22
 700:	08 f0       	brcs	.+2      	; 0x704 <__udivmodqi4_ep>
 702:	96 1b       	sub	r25, r22

00000704 <__udivmodqi4_ep>:
 704:	88 1f       	adc	r24, r24
 706:	7a 95       	dec	r23
 708:	c9 f7       	brne	.-14     	; 0x6fc <__udivmodqi4_loop>
 70a:	80 95       	com	r24
 70c:	08 95       	ret

0000070e <itoa>:
 70e:	fb 01       	movw	r30, r22
 710:	9f 01       	movw	r18, r30
 712:	e8 94       	clt
 714:	42 30       	cpi	r20, 0x02	; 2
 716:	bc f0       	brlt	.+46     	; 0x746 <itoa+0x38>
 718:	45 32       	cpi	r20, 0x25	; 37
 71a:	ac f4       	brge	.+42     	; 0x746 <itoa+0x38>
 71c:	4a 30       	cpi	r20, 0x0A	; 10
 71e:	29 f4       	brne	.+10     	; 0x72a <itoa+0x1c>
 720:	97 fb       	bst	r25, 7
 722:	1e f4       	brtc	.+6      	; 0x72a <itoa+0x1c>
 724:	90 95       	com	r25
 726:	81 95       	neg	r24
 728:	9f 4f       	sbci	r25, 0xFF	; 255
 72a:	64 2f       	mov	r22, r20
 72c:	77 27       	eor	r23, r23
 72e:	1e d0       	rcall	.+60     	; 0x76c <__udivmodhi4>
 730:	80 5d       	subi	r24, 0xD0	; 208
 732:	8a 33       	cpi	r24, 0x3A	; 58
 734:	0c f0       	brlt	.+2      	; 0x738 <itoa+0x2a>
 736:	89 5d       	subi	r24, 0xD9	; 217
 738:	81 93       	st	Z+, r24
 73a:	cb 01       	movw	r24, r22
 73c:	00 97       	sbiw	r24, 0x00	; 0
 73e:	a9 f7       	brne	.-22     	; 0x72a <itoa+0x1c>
 740:	16 f4       	brtc	.+4      	; 0x746 <itoa+0x38>
 742:	5d e2       	ldi	r21, 0x2D	; 45
 744:	51 93       	st	Z+, r21
 746:	10 82       	st	Z, r1
 748:	c9 01       	movw	r24, r18
 74a:	00 c0       	rjmp	.+0      	; 0x74c <strrev>

0000074c <strrev>:
 74c:	dc 01       	movw	r26, r24
 74e:	fc 01       	movw	r30, r24
 750:	67 2f       	mov	r22, r23
 752:	71 91       	ld	r23, Z+
 754:	77 23       	and	r23, r23
 756:	e1 f7       	brne	.-8      	; 0x750 <strrev+0x4>
 758:	32 97       	sbiw	r30, 0x02	; 2
 75a:	04 c0       	rjmp	.+8      	; 0x764 <strrev+0x18>
 75c:	7c 91       	ld	r23, X
 75e:	6d 93       	st	X+, r22
 760:	70 83       	st	Z, r23
 762:	62 91       	ld	r22, -Z
 764:	ae 17       	cp	r26, r30
 766:	bf 07       	cpc	r27, r31
 768:	c8 f3       	brcs	.-14     	; 0x75c <strrev+0x10>
 76a:	08 95       	ret

0000076c <__udivmodhi4>:
 76c:	aa 1b       	sub	r26, r26
 76e:	bb 1b       	sub	r27, r27
 770:	51 e1       	ldi	r21, 0x11	; 17
 772:	07 c0       	rjmp	.+14     	; 0x782 <__udivmodhi4_ep>

00000774 <__udivmodhi4_loop>:
 774:	aa 1f       	adc	r26, r26
 776:	bb 1f       	adc	r27, r27
 778:	a6 17       	cp	r26, r22
 77a:	b7 07       	cpc	r27, r23
 77c:	10 f0       	brcs	.+4      	; 0x782 <__udivmodhi4_ep>
 77e:	a6 1b       	sub	r26, r22
 780:	b7 0b       	sbc	r27, r23

00000782 <__udivmodhi4_ep>:
 782:	88 1f       	adc	r24, r24
 784:	99 1f       	adc	r25, r25
 786:	5a 95       	dec	r21
 788:	a9 f7       	brne	.-22     	; 0x774 <__udivmodhi4_loop>
 78a:	80 95       	com	r24
 78c:	90 95       	com	r25
 78e:	bc 01       	movw	r22, r24
 790:	cd 01       	movw	r24, r26
 792:	08 95       	ret

00000794 <_exit>:
 794:	f8 94       	cli

00000796 <__stop_program>:
 796:	ff cf       	rjmp	.-2      	; 0x796 <__stop_program>
